(dp1
S'output'
p2
S"<class 'simplejson.scanner.JSONDecodeError'> Expecting value: line 1 column 1 (char 0)"
p3
sS'layer'
p4
S'/Users/AlyanShafique/Documents/web2py/web2py/applications/ballislife/controllers/default.py'
p5
sS'code'
p6
S'# -*- coding: utf-8 -*-\n# this file is released under public domain and you can use without limitations\n\n#########################################################################\n## This is a sample controller\n## - index is the default action of any application\n## - user is required for authentication and authorization\n## - download is for downloading files uploaded in the db (does streaming)\n## - api is an example of Hypermedia API support and access control\n#########################################################################\nimport requests\nimport json as simplejson\nimport pandas as pd\n\n"""\n\nRefer: https://docs.python.org/2/library/json.html\n\nfilename = open(\'../Models/team_players.json\', \'r\')\n\nread_file = filename.read()\n\ny=json.loads(read_file)\n"""\npd.set_option(\'display.width\', 200)\npd.set_option(\'display.max_colwidth\', -1)\nplayers = []\nplayer_stats = {\'name\':None,\'gp\':None,\'w\':None,\'l\':None,\'win_pct\':None,\'min\':None,\'fgm\':None,\'fga\':None,\'fg_pct\':None,\n                \'fg3m\':None,\'fg3a\':None,\'fg3_pct\':None,\'ftm\':None,\'fta\':None,\'ft_pct\':None,\'oreb\':None,\'dreb\':None,\'reb\':None,\'ast\':None,\n                \'tov\':None,\'stl\':None,\'blk\':None,\'pf\':None,\'pts\':None,\'plus_minus\':None}\n#player_stats = {\'name\':None,\'avg_dribbles\':None,\'avg_touch_time\':None,\'avg_shot_distance\':None,\'avg_defender_distance\':None}\nteams ={\'wizards\':{\n                   \'garrett temple\':\'202066\',\n                   \'andre miller\':\'1889\',\n                   \'kevin seraphin\':\'202338\',\n                   \'otto porter\':\'203490\',\n                   \'rasual butler\':\'2446\',\n                   \'kris humphries\':\'2743\',\n                   \'nene hilario\':\'2403\',\n                   \'paul pierce\':\'1718\',\n                   \'marcin gortat\':\'101162\',\n                   \'bradley beal\':\'203078\',\n                   \'john wall\':\'202322\'},\n        \'magic\'  :{\n                   \'ben gordon\':\'2732\',\n                   \'aaron gordon\':\'203932\',\n                   \'kyle oquinn\':\'203124\',\n                   \'channing frye\':\'101112\',\n                   \'elfrid payton\':\'203901\',\n                   \'evan fournier\':\'203095\',\n                   \'victor oladipo\':\'203506\',\n                   \'nikola vucevic\':\'202696\',\n                   \'tobias harris\':\'202699\'},\n        \'heat\'    :{\n                    \'mario chalmers\':\'201596\',\n                    \'dwayne wade\':\'2548\',\n                    \'udonis haslem\':\'2617\',\n                    \'chris andersen\': \'2365\',\n                    \'shabazz napier\':\'203894\',\n                    \'james ennis\':\'203516\',\n                    \'chris bosh\':\'2547\',\n                    \'shawne williams\':\'200761\',\n                    \'luol deng\':\'2736\',\n                    \'norris cole\':\'202708\'},\n        \'hornets\'  :{\n                    \'brian roberts\':\'203148\',\n                    \'michael kidd-gilchrist\':\'203077\',\n                    \'jason maxiell\':\'101131\',\n                    \'bismack biyombo\':\'202687\',\n                    \'lance stephenson\':\'202362\',\n                    \'kemba walker\':\'202689\',\n                    \'gary neal\':\'202390\',\n                    \'al jefferson\':\'2744\',\n                    \'marvin williams\':\'101107\',\n                    \'gerald henderson\':\'201945\',\n                    \'cody zeller\':\'203469\'},\n        \'hawks\'    :{\'pero antic\':\'203544\',\n                     \'thabo sefolosha\':\'200757\',\n                     \'demarre carroll\':\'201960\',\n                     \'kent bazemore\':\'203145\',\n                     \'jeff teague\':\'201952\',\n                     \'al horford\':\'201143\',\n                     \'mike scott\':\'203118\',\n                     \'dennis schroder\':\'203471\',\n                     \'kyle korver\':\'2594\',\n                     \'paul millsap\':\'200794\'},\n        \'bucks\'     :{\'john henson\':\'203089\',\n                      \'zaza pachulia\':\'2585\',\n                      \'khris middleton\':\'203114\',\n                      \'jerryd bayless\':\'201573\',\n                      \'brandon knight\':\'202688\',\n                      \'oj mayo\':\'201564\',\n                      \'jared dudley\':\'201162\',\n                      \'giannis antetokounmpo\':\'203507\'},\n        \'pacers\'    :{\'cj watson\':\'201228\',\n                      \'david west\':\'2561\',\n                      \'donald sloan\':\'202388\',\n                      \'lavoy allen\':\'202730\',\n                      \'damjan rudez\':\'204014\',\n                      \'chris copeland\':\'203142\',\n                      \'cj miles\':\'101139\',\n                      \'rodney stuckey\':\'201155\',\n                      \'roy hibbert\':\'201579\',\n                      \'luis scola\':\'2449\',\n                      \'solomon hill\':\'203524\'},\n        \'pistons\'    :{\'brandon jennings\':\'201943\',\n                       \'jonas jerebko\':\'201973\',\n                       \'caron butler\':\'2406\',\n                       \'greg monroe\':\'202328\',\n                       \'kyle singler\':\'202713\',\n                       \'kentavious caldwell-pope\':\'203484\',\n                       \'dj augustin\':\'201571\',\n                       \'andre drummond\':\'203083\'},\n        \'cavaliers\'   :{\'mike miller\':\'2034\',\n                        \'joe harris\':\'203925\',\n                        \'matthew dellavedova\':\'203521\',\n                        \'lebron james\':\'2544\',\n                        \'shawn marion\':\'1890\',\n                        \'kevin love\':\'201567\',\n                        \'kyrie irving\':\'202681\',\n                        \'tristan thompson\':\'202684\'},\n        \'bulls\'       :{\'joakim noah\':\'201149\',\n                        \'derrick rose\':\'201565\',\n                        \'kirk hinrich\':\'2550\',\n                        \'tony snell\':\'203503\',\n                        \'taj gibson\':\'201959\',\n                        \'jimmy butler\':\'202710\',\n                        \'pau gasol\':\'2200\',\n                        \'nikola mirotic\':\'202703\',\n                        \'aaron brooks\':\'201166\'},\n        \'raptors\'     :{\'james johnson\':\'201949\',\n                        \'tyler hansbrough\':\'201946\',\n                        \'amir johnson\':\'101161\',\n                        \'jonas valanciunas\':\'202685\',\n                        \'kyle lowry\':\'200768\',\n                        \'lou williams\':\'101150\',\n                        \'greivis vasquez\':\'202349\',\n                        \'patrick patterson\':\'202335\',\n                        \'terrence ross\':\'203082\'},\n        \'sixers\'       :{\'jerami grant\':\'203924\',\n                         \'michael carter-williams\':\'203487\',\n                         \'hollis thompson\':\'203138\',\n                         \'robert covington\':\'203496\',\n                         \'luc mbah a moute\':\'201601\',\n                         \'jakarr sampson\':\'203960\',\n                         \'nerles noel\':\'203457\',\n                         \'kj mcdaniels\':\'203909\',\n                         \'henry sims\':\'203156\'},\n        \'knicks\'        :{\'cole aldrich\':\'202332\',\n                          \'amare stoudemire\':\'2405\',\n                          \'travis wear\':\'204037\',\n                          \'jose calderon\':\'101181\',\n                          \'carmelo anthony\':\'2546\',\n                          \'pablo prigioni\':\'203143\',\n                          \'quincy acy\':\'203112\',\n                          \'shane larkin\':\'203499\',\n                          \'time hardaway jr\':\'203501\',\n                          \'jason smith\':\'201160\'},\n        \'nets\'           :{\'jerome jordan\':\'202366\',\n                           \'deron williams\':\'101114\',\n                           \'mirza teletovic\':\'203141\',\n                           \'brook lopez\':\'201572\',\n                           \'kevin garnett\':\'708\',\n                           \'joe johnson\':\'2207\',\n                           \'bojan bogdanovic\':\'202711\',\n                           \'alan anderson\':\'101187\',\n                           \'mason plumlee\':\'203486\',\n                           \'jarrett jack\':\'101127\'},\n        \'celtics\'       :{\'jeff green\':\'201145\',\n                          \'marcus smart\':\'203935\',\n                          \'marcus thornton\':\'201977\',\n                          \'kelly olynyk\':\'203482\',\n                          \'avery bradley\':\'202340\',\n                          \'tyler zeller\':\'203092\',\n                          \'evan turner\':\'202323\',\n                          \'brandon bass\':\'101138\',\n                          \'jared sullinger\':\'203096\'},\n        \'spurs\'          :{\'marco belinelli\':\'201158\',\n                           \'kawhi leonard\':\'202695\',\n                           \'tony parker\':\'2225\',\n                           \'manu ginobili\':\'1938\',\n                           \'matt bonner\':\'2588\',\n                           \'aron baynes\':\'203382\',\n                           \'tim duncan\':\'1495\',\n                           \'cory joseph\':\'202709\',\n                           \'danny green\':\'201980\',\n                           \'boris diaw\':\'2564\'},\n        \'pelicans\'        :{\'dante cunningham\':\'201967\',\n                            \'jrue holiday\':\'201950\',\n                            \'jimmer dredette\':\'202690\',\n                            \'alexis ajinca\':\'201582\',\n                            \'luke babbitt\':\'202337\',\n                            \'anthony davis\':\'203076\',\n                            \'omer asik\':\'201600\',\n                            \'ryan anderson\':\'201583\',\n                            \'tyreke evans\':\'201936\'},\n        \'grizzlies\'        :{\'vince carter\':\'1713\',\n                             \'zach randolph\':\'2216\',\n                             \'tony allen\':\'2754\',\n                             \'jon leuer\':\'202720\',\n                             \'mike conley\':\'201144\',\n                             \'courtney lee\':\'201584\',\n                             \'beno urdih\':\'2757\',\n                             \'kosta koufos\':\'201585\',\n                             \'marc gasol\':\'201188\'},\n        \'rockets\'           :{\'dwight howard\':\'2730\',\n                              \'kostas papanikolaou\':\'203123\',\n                              \'patrick beverley\':\'201976\',\n                              \'joey dorsey\':\'201595\',\n                              \'jason terry\':\'1891\',\n                              \'donatas motiejunas\':\'202700\',\n                              \'trevor ariza\':\'2772\',\n                              \'james harden\':\'201935\'},\n        \'mavericks\'          :{\'greg smith\':\'202962\',\n                               \'charlie villanueva\':\'101111\',\n                               \'al farouq aminu\':\'202329\',\n                               \'richard jefferson\':\'2210\',\n                               \'dirk nowtizski\':\'1717\',\n                               \'chandler parsons\':\'202718\',\n                               \'tyson chandler\':\'2199\',\n                               \'devin harris\':\'2734\',\n                               \'jose juan barea\':\'200826\',\n                               \'mnta ellis\':\'101145\'},\n        \'kings\'               :{\'ramon sessions\':\'201196\',\n                                \'omri casspi\':\'201956\',\n                                \'ray mccallum\':\'203492\',\n                                \'demarcus cousins\':\'202326\',\n                                \'derrick williams\':\'202682\',\n                                \'darren collison\':\'201954\',\n                                \'carl landry\':\'201171\',\n                                \'rudy gay\':\'200752\',\n                                \'nik stauskas\':\'203917\',\n                                \'jason thompson\':\'201574\',\n                                \'ben mclemore\':\'203463\'},\n        \'suns\'                 :{\'isaiah thomas\':\'202738\',\n                                 \'pj tucker\':\'200782\',\n                                 \'alex len\':\'203458\',\n                                 \'goran dragic\':\'201609\',\n                                 \'gerald green\':\'101123\',\n                                 \'eric bledsoe\':\'202339\',\n                                 \'markieff morris\':\'202693\',\n                                 \'marcus morris\':\'202694\'},\n        \'lakers\'                :{\'kobe bryant\':\'977\',\n                                  \'nick young\':\'201156\',\n                                  \'ronnie price\':\'101179\',\n                                  \'wayne ellington\':\'201961\',\n                                  \'robert sacre\':\'203135\',\n                                  \'jordan hill\':\'201941\',\n                                  \'wesley johnson\':\'202325\',\n                                  \'carlos boozer\':\'2430\',\n                                  \'jeremy lin\':\'202391\',\n                                  \'ed davis\':\'202334\'},\n        \'clippers\'               :{\'hedo turkoglu\':\'2045\',\n                                   \'jordan farmar\':\'200770\',\n                                   \'spencer hawes\':\'201150\',\n                                   \'glen davis\':\'201175\',\n                                   \'jj redick\':\'200755\',\n                                   \'blake griffin\':\'201933\',\n                                   \'matt barnes\':\'2440\',\n                                   \'jamal crawford\':\'2037\',\n                                   \'deandre jordan\':\'201599\',\n                                   \'chris paul\':\'101108\'},\n        \'warriors\'               :{\'andrew bogut\':\'101106\',\n                                   \'leandro barbosa\':\'2571\',\n                                   \'marreese speights\':\'201578\',\n                                   \'shaun livingston\':\'2733\',\n                                   \'andre iguodala\':\'2738\',\n                                   \'klay thompson\':\'202691\',\n                                   \'draymond green\':\'203110\',\n                                   \'harrison barnes\':\'203084\',\n                                   \'stephen curry\':\'201939\'},\n        \'jazz\'                    :{\'enes kanter\':\'202683\',\n                                    \'derrick favors\':\'202324\',\n                                    \'jon ingles\':\'204060\',\n                                    \'trevor booker\':\'202344\',\n                                    \'trey burke\':\'203504\',\n                                    \'rudy gobert\':\'203497\',\n                                    \'gordon hayward\':\'202330\',\n                                    \'dante exum\':\'203957\'},\n        \'blazers\'                  :{\'alan crabbe\':\'203459\',\n                                     \'cj mccollum\':\'203468\',\n                                     \'nicolas batum\':\'201587\',\n                                     \'lamarcus aldridge\':\'200746\',\n                                     \'chris kaman\':\'2549\',\n                                     \'wesley matthews\':\'202083\',\n                                     \'steve blake\':\'2581\',\n                                     \'damian lillard\':\'203081\'},\n        \'thunder\'                   :{\'jeremy lamb\':\'203087\',\n                                      \'russell westbrook\':\'201566\',\n                                      \'andre roberson\':\'203460\',\n                                      \'anthony morrow\':\'201627\',\n                                      \'nick collison\':\'2555\',\n                                      \'reggie jackson\':\'202704\',\n                                      \'steve adams\':\'203500\',\n                                      \'kendrick perkins\':\'2570\',\n                                      \'serge ibaka\':\'201586\'},\n        \'timberwolves\'               :{\'robbie hummel\':\'203133\',\n                                       \'shabazz muhammad\':\'203498\',\n                                       \'mo williams\':\'2590\',\n                                       \'chase budinger\':\'201978\',\n                                       \'thaddeus young\':\'201152\',\n                                       \'zach lavine\':\'203897\',\n                                       \'anthony bennett\':\'203461\',\n                                       \'gorgui dieng\':\'203476\',\n                                       \'andrew wiggins\':\'203952\'},\n        \'nuggets\'                     :{\'arron afflalo\':\'201167\',\n                                        \'danilo gallinai\':\'201568\',\n                                        \'timofey mozgov\':\'202389\',\n                                        \'nate robinson\':\'101126\',\n                                        \'alonzo gee\':\'202087\',\n                                        \'jusuf nurkic\':\'203994\',\n                                        \'darrell arthur\':\'201589\',\n                                        \'kenneth faried\':\'202702\',\n                                        \'ty lawson\':\'201951\',\n                                        \'wilson chandler\':\'201163\',\n                                        \'jj hickson\':\'201581\'}}\ndef index():\n    """\n    example action using the internationalization operator T and flash\n    rendered by views/default/index.html or views/generic.html\n\n    if you need a simple wiki simply replace the two lines below with:\n    return auth.wiki()\n    """\n    test = \'My Thumbnail\'\n    response.flash = T("Welcome to web2py!")\n    return dict(message=T(\'Hello World\'))\n\n\ndef scores():\n    test = \'My Thumbnail\'\n    response.flash = T("Welcome to web2py!")\n    return dict(message=T(\'Hello World\'))\n\ndef team_players():\n    return(dict(a="a"))\n\ndef find_stats(name,player_id):\n    """url = \'http://stats.nba.com/stats/playerdashptshotlog?\'+ \\\n    \'DateFrom=&DateTo=&GameSegment=&LastNGames=0&LeagueID=00&\' + \\\n    \'Location=&Month=0&OpponentTeamID=0&Outcome=&Period=0&\' + \\\n    \'PlayerID=\'+player_id+\'&Season=2014-15&SeasonSegment=&\' + \\\n    \'SeasonType=Regular+Season&TeamID=0&VsConference=&VsDivision=\'"""\n\n    url = \'http://stats.nba.com/stats/playerdashboardbygeneralsplits?\' + \\\n    \'DateFrom=&DateTo=&GameSegment=&LastNGames=0&LeagueID=00&Location=&\' + \\\n    \'MeasureType=Base&Month=0&OpponentTeamID=0&Outcome=&PaceAdjust=N&\' + \\\n    \'PerMode=PerGame&Period=0&PlayerID=\'+player_id+\'+&PlusMinus=N&Rank=N\' + \\\n    \'&Season=2014-15&SeasonSegment=&SeasonType=Regular+Season&VsConference=&VsDivision=\'\n    \n    #Create Dict based on JSON response\n    response = requests.get(url)\n    shots = response.json()[\'resultSets\'][0][\'rowSet\']\n    data = simplejson.loads(response.text)\n    #print (\'================================\')\n    #print data\n    #Create df from data and find averages\n    headers = data[\'resultSets\'][0][\'headers\']\n    shot_data = data[\'resultSets\'][0][\'rowSet\']\n    df = pd.DataFrame(shot_data,columns=headers)\n    #print (\'+++++++++++++++++++++++++++++++++\')\n    #print df\n    """avg_def = df[\'CLOSE_DEF_DIST\'].mean(axis=1)\n    avg_dribbles = df[\'DRIBBLES\'].mean(axis=1)\n    avg_shot_distance = df[\'SHOT_DIST\'].mean(axis=1)\n    avg_touch_time = df[\'TOUCH_TIME\'].mean(axis=1)"""\n    gp = df[\'GP\'].mean(axis=1)\n    w = df[\'W\'].mean(axis=1)\n    l = df[\'L\'].mean(axis=1)\n    win_pct = df[\'W_PCT\'].mean(axis=1)\n    min = df[\'MIN\'].mean(axis=1)\n    fgm = df[\'FGM\'].mean(axis=1)\n    fga = df[\'FGA\'].mean(axis=1)\n    fg_pct = df[\'FG_PCT\'].mean(axis=1)\n    fg3m = df[\'FG3M\'].mean(axis=1)\n    fg3a = df[\'FG3A\'].mean(axis=1)\n    fg3_pct = df[\'FG3_PCT\'].mean(axis=1)\n    ftm = df[\'FTM\'].mean(axis=1)\n    fta = df[\'FTA\'].mean(axis=1)\n    ft_pct = df[\'FT_PCT\'].mean(axis=1)\n    oreb = df[\'OREB\'].mean(axis=1)\n    dreb = df[\'DREB\'].mean(axis=1)\n    reb = df[\'REB\'].mean(axis=1)\n    ast = df[\'AST\'].mean(axis=1)\n    tov = df[\'TOV\'].mean(axis=1)\n    stl = df[\'STL\'].mean(axis=1)\n    blk = df[\'BLK\'].mean(axis=1)\n    pf = df[\'PF\'].mean(axis=1)\n    pts = df[\'PTS\'].mean(axis=1)\n    plus_minus = df[\'PLUS_MINUS\'].mean(axis=1)\n    #add averages to dictionary\n    player_stats[\'name\'] = name\n    """player_stats[\'avg_defender_distance\']=avg_def\n    player_stats[\'avg_shot_distance\'] = avg_shot_distance\n    player_stats[\'avg_touch_time\'] = avg_touch_time\n    player_stats[\'avg_dribbles\'] = avg_dribbles\n    players.append(player_stats.copy())"""\n    player_stats[\'gp\'] = gp\n    player_stats[\'w\']= w\n    player_stats[\'l\'] = l\n    player_stats[\'win_pct\'] = win_pct\n    player_stats[\'min\'] = min\n    player_stats[\'fgm\'] = fgm\n    player_stats[\'fga\'] = fga\n    player_stats[\'fg_pct\'] = fg_pct\n    player_stats[\'fg3m\'] = fg3m\n    player_stats[\'fg3a\'] = fg3a\n    player_stats[\'fg3_pct\'] = fg3_pct\n    player_stats[\'ftm\'] = ftm\n    player_stats[\'fta\'] = fta\n    player_stats[\'ft_pct\'] = ft_pct\n    player_stats[\'ftm\'] = ftm\n    player_stats[\'fta\'] = fta\n    player_stats[\'ft_pct\'] = ft_pct\n    player_stats[\'oreb\'] = oreb\n    player_stats[\'dreb\'] = dreb\n    player_stats[\'reb\'] = reb\n    player_stats[\'ast\'] = ast\n    player_stats[\'tov\'] = tov\n    player_stats[\'stl\'] = stl\n    player_stats[\'blk\'] = blk\n    player_stats[\'pf\'] = pf\n    player_stats[\'pts\'] = pts\n    player_stats[\'+/-\'] = plus_minus\n    players.append(player_stats.copy())\n\ndef stats():\n    with open (\'applications/ballislife/static/team_players.json\') as f:\n        data=f.read()\n        z=simplejson.dumps(data)\n    #NBA Stats API using selected player ID\n    #count = 0\n    #for x in teams:\n    #    for y in teams[x]:\n    #        count+=1\n    #        find_stats(y,teams[x][y])\n    #        print count\n    #        print(teams[x][y])\n    for x in teams:\n        for y in teams[x]:\n            find_stats(y, x)\n            print y\n            print x\n    #find_stats(\'Stephen Curry\',\'201939\')\n    #find_stats(\'James Harden\',\'201935\')\n    #find_stats(\'Klay Thompson\',\'202691\')\n    #find_stats(\'LeBron James\',\'2544\')\n    #cols = [\'name\',\'avg_defender_distance\',\'avg_dribbles\',\'avg_shot_distance\',\'avg_touch_time\']\n    cols = [\'name\', \'gp\', \'w\', \'l\', \'win_pct\', \'min\', \'fgm\', \'fga\', \'fg_pct\', \'fg3m\', \'fg3a\', \'fg3_pct\',\n            \'ftm\', \'fta\',\'ft_pct\', \'pf\', \'oreb\', \'dreb\', \'reb\', \'ast\', \'tov\', \'stl\', \'blk\', \'pts\', \'+/-\']\n    #\n    df = pd.DataFrame(players,columns = cols)\n    print (\'=========================\')\n    print df\n    df = df.to_html(classes="table table-condensed")\n    return dict(df=df)\n\ndef top_players():\n    test = \'My Thumbnail\'\n    response.flash = T("Welcome to web2py!")\n    return dict(message=T(\'Hello World\'))\n\ndef user():\n    """\n    exposes:\n    http://..../[app]/default/user/login\n    http://..../[app]/default/user/logout\n    http://..../[app]/default/user/register\n    http://..../[app]/default/user/profile\n    http://..../[app]/default/user/retrieve_password\n    http://..../[app]/default/user/change_password\n    http://..../[app]/default/user/manage_users (requires membership in\n    use @auth.requires_login()\n        @auth.requires_membership(\'group name\')\n        @auth.requires_permission(\'read\',\'table name\',record_id)\n    to decorate functions that need access control\n    """\n    return dict(form=auth())\n\n\n@cache.action()\ndef download():\n    """\n    allows downloading of uploaded files\n    http://..../[app]/default/download/[filename]\n    """\n    return response.download(request, db)\n\n\ndef call():\n    """\n    exposes services. for example:\n    http://..../[app]/default/call/jsonrpc\n    decorate with @services.jsonrpc the functions to expose\n    supports xml, json, xmlrpc, jsonrpc, amfrpc, rss, csv\n    """\n    return service()\n\n\n@auth.requires_login() \ndef api():\n    """\n    this is example of API with access control\n    WEB2PY provides Hypermedia API (Collection+JSON) Experimental\n    """\n    from gluon.contrib.hypermedia import Collection\n    rules = {\n        \'<tablename>\': {\'GET\':{},\'POST\':{},\'PUT\':{},\'DELETE\':{}},\n        }\n    return Collection(db).process(request,response,rules)\n\nresponse._vars=response._caller(stats)\n'
p7
sS'snapshot'
p8
(dp9
S'exception'
p10
(dp11
S'__module__'
p12
S"'simplejson.scanner'"
p13
sS'__getslice__'
p14
S"<method-wrapper '__getslice__' of JSONDecodeError object>"
p15
sS'__str__'
p16
S"<method-wrapper '__str__' of JSONDecodeError object>"
p17
sS'__reduce__'
p18
S"<bound method JSONDecodeError.__reduce__ of JSON...or('Expecting value: line 1 column 1 (char 0)',)>"
p19
sS'pos'
p20
S'0'
sS'endlineno'
p21
S'None'
p22
sS'__dict__'
p23
S'{\'colno\': 1, \'doc\': u"The value \'suns \' is not valid for PlayerID.; PlayerID is required", \'end\': None, \'endcolno\': None, \'endlineno\': None, \'lineno\': 1, \'msg\': \'Expecting value\', \'pos\': 0}'
p24
sS'__sizeof__'
p25
S'<built-in method __sizeof__ of JSONDecodeError object>'
p26
sS'__weakref__'
p27
S'None'
p28
sS'__init__'
p29
S"<bound method JSONDecodeError.__init__ of JSONDe...or('Expecting value: line 1 column 1 (char 0)',)>"
p30
sS'__setattr__'
p31
S"<method-wrapper '__setattr__' of JSONDecodeError object>"
p32
sS'__reduce_ex__'
p33
S'<built-in method __reduce_ex__ of JSONDecodeError object>'
p34
sS'end'
p35
S'None'
p36
sS'__new__'
p37
S'<built-in method __new__ of type object>'
p38
sS'__format__'
p39
S'<built-in method __format__ of JSONDecodeError object>'
p40
sS'__class__'
p41
S"<class 'simplejson.scanner.JSONDecodeError'>"
p42
sS'lineno'
p43
S'1'
sS'msg'
p44
S"'Expecting value'"
p45
sS'__doc__'
p46
S"'Subclass of ValueError with the following additi...e column corresponding to end (may be None)\\n\\n    '"
p47
sS'__getitem__'
p48
S"<method-wrapper '__getitem__' of JSONDecodeError object>"
p49
sS'__setstate__'
p50
S'<built-in method __setstate__ of JSONDecodeError object>'
p51
sS'__getattribute__'
p52
S"<method-wrapper '__getattribute__' of JSONDecodeError object>"
p53
sS'args'
p54
S"('Expecting value: line 1 column 1 (char 0)',)"
p55
sS'__subclasshook__'
p56
S'<built-in method __subclasshook__ of type object>'
p57
sS'colno'
p58
S'1'
sS'__unicode__'
p59
S'<built-in method __unicode__ of JSONDecodeError object>'
p60
sS'doc'
p61
S'u"The value \'suns \' is not valid for PlayerID.; PlayerID is required"'
p62
sS'endcolno'
p63
S'None'
p64
sS'__delattr__'
p65
S"<method-wrapper '__delattr__' of JSONDecodeError object>"
p66
sS'__repr__'
p67
S"<method-wrapper '__repr__' of JSONDecodeError object>"
p68
sS'__hash__'
p69
S"<method-wrapper '__hash__' of JSONDecodeError object>"
p70
ssS'evalue'
p71
S'Expecting value: line 1 column 1 (char 0)'
p72
sS'request'
p73
cgluon.html
XML_unpickle
p74
(S'sY\xa9\x00\x00<div><table><tr><td style="font-weight:bold;vertical-align:top;">ajax</td><td style="vertical-align:top;">:</td><td><div>False</div></td></tr><tr><td style="font-weight:bold;vertical-align:top;">application</td><td style="vertical-align:top;">:</td><td><div>ballislife</div></td></tr><tr><td style="font-weight:bold;vertical-align:top;">args</td><td style="vertical-align:top;">:</td><td><div><table></table></div></td></tr><tr><td style="font-weight:bold;vertical-align:top;">cid</td><td style="vertical-align:top;">:</td><td><div>None</div></td></tr><tr><td style="font-weight:bold;vertical-align:top;">client</td><td style="vertical-align:top;">:</td><td><div>127.0.0.1</div></td></tr><tr><td style="font-weight:bold;vertical-align:top;">controller</td><td style="vertical-align:top;">:</td><td><div>default</div></td></tr><tr><td style="font-weight:bold;vertical-align:top;">cookies</td><td style="vertical-align:top;">:</td><td><div><table><tr><td style="font-weight:bold;vertical-align:top;">session_id_admin</td><td style="vertical-align:top;">:</td><td><div>127.0.0.1-f1335486-80a6-49cd-83c4-91f7302de265<table><tr><td style="font-weight:bold;vertical-align:top;">comment</td><td style="vertical-align:top;">:</td><td><div></div></td></tr><tr><td style="font-weight:bold;vertical-align:top;">domain</td><td style="vertical-align:top;">:</td><td><div></div></td></tr><tr><td style="font-weight:bold;vertical-align:top;">expires</td><td style="vertical-align:top;">:</td><td><div></div></td></tr><tr><td style="font-weight:bold;vertical-align:top;">httponly</td><td style="vertical-align:top;">:</td><td><div></div></td></tr><tr><td style="font-weight:bold;vertical-align:top;">max-age</td><td style="vertical-align:top;">:</td><td><div></div></td></tr><tr><td style="font-weight:bold;vertical-align:top;">path</td><td style="vertical-align:top;">:</td><td><div></div></td></tr><tr><td style="font-weight:bold;vertical-align:top;">secure</td><td style="vertical-align:top;">:</td><td><div></div></td></tr><tr><td style="font-weight:bold;vertical-align:top;">version</td><td style="vertical-align:top;">:</td><td><div></div></td></tr></table></div></td></tr><tr><td style="font-weight:bold;vertical-align:top;">session_id_ballislife</td><td style="vertical-align:top;">:</td><td><div>127.0.0.1-896f9c66-134b-4892-a036-e9b594e6842a<table><tr><td style="font-weight:bold;vertical-align:top;">comment</td><td style="vertical-align:top;">:</td><td><div></div></td></tr><tr><td style="font-weight:bold;vertical-align:top;">domain</td><td style="vertical-align:top;">:</td><td><div></div></td></tr><tr><td style="font-weight:bold;vertical-align:top;">expires</td><td style="vertical-align:top;">:</td><td><div></div></td></tr><tr><td style="font-weight:bold;vertical-align:top;">httponly</td><td style="vertical-align:top;">:</td><td><div></div></td></tr><tr><td style="font-weight:bold;vertical-align:top;">max-age</td><td style="vertical-align:top;">:</td><td><div></div></td></tr><tr><td style="font-weight:bold;vertical-align:top;">path</td><td style="vertical-align:top;">:</td><td><div></div></td></tr><tr><td style="font-weight:bold;vertical-align:top;">secure</td><td style="vertical-align:top;">:</td><td><div></div></td></tr><tr><td style="font-weight:bold;vertical-align:top;">version</td><td style="vertical-align:top;">:</td><td><div></div></td></tr></table></div></td></tr><tr><td style="font-weight:bold;vertical-align:top;">session_id_bboard</td><td style="vertical-align:top;">:</td><td><div>127.0.0.1-37bcd687-01af-4f07-ae43-a148a564d53a<table><tr><td style="font-weight:bold;vertical-align:top;">comment</td><td style="vertical-align:top;">:</td><td><div></div></td></tr><tr><td style="font-weight:bold;vertical-align:top;">domain</td><td style="vertical-align:top;">:</td><td><div></div></td></tr><tr><td style="font-weight:bold;vertical-align:top;">expires</td><td style="vertical-align:top;">:</td><td><div></div></td></tr><tr><td style="font-weight:bold;vertical-align:top;">httponly</td><td style="vertical-align:top;">:</td><td><div></div></td></tr><tr><td style="font-weight:bold;vertical-align:top;">max-age</td><td style="vertical-align:top;">:</td><td><div></div></td></tr><tr><td style="font-weight:bold;vertical-align:top;">path</td><td style="vertical-align:top;">:</td><td><div></div></td></tr><tr><td style="font-weight:bold;vertical-align:top;">secure</td><td style="vertical-align:top;">:</td><td><div></div></td></tr><tr><td style="font-weight:bold;vertical-align:top;">version</td><td style="vertical-align:top;">:</td><td><div></div></td></tr></table></div></td></tr><tr><td style="font-weight:bold;vertical-align:top;">session_id_forsale</td><td style="vertical-align:top;">:</td><td><div>127.0.0.1-5ba3b18e-b5a8-46ec-acc8-0b06290c576e<table><tr><td style="font-weight:bold;vertical-align:top;">comment</td><td style="vertical-align:top;">:</td><td><div></div></td></tr><tr><td style="font-weight:bold;vertical-align:top;">domain</td><td style="vertical-align:top;">:</td><td><div></div></td></tr><tr><td style="font-weight:bold;vertical-align:top;">expires</td><td style="vertical-align:top;">:</td><td><div></div></td></tr><tr><td style="font-weight:bold;vertical-align:top;">httponly</td><td style="vertical-align:top;">:</td><td><div></div></td></tr><tr><td style="font-weight:bold;vertical-align:top;">max-age</td><td style="vertical-align:top;">:</td><td><div></div></td></tr><tr><td style="font-weight:bold;vertical-align:top;">path</td><td style="vertical-align:top;">:</td><td><div></div></td></tr><tr><td style="font-weight:bold;vertical-align:top;">secure</td><td style="vertical-align:top;">:</td><td><div></div></td></tr><tr><td style="font-weight:bold;vertical-align:top;">version</td><td style="vertical-align:top;">:</td><td><div></div></td></tr></table></div></td></tr><tr><td style="font-weight:bold;vertical-align:top;">session_id_hw1sub2</td><td style="vertical-align:top;">:</td><td><div>127.0.0.1-aad81459-e3e8-42c2-9d0f-8958df37866d<table><tr><td style="font-weight:bold;vertical-align:top;">comment</td><td style="vertical-align:top;">:</td><td><div></div></td></tr><tr><td style="font-weight:bold;vertical-align:top;">domain</td><td style="vertical-align:top;">:</td><td><div></div></td></tr><tr><td style="font-weight:bold;vertical-align:top;">expires</td><td style="vertical-align:top;">:</td><td><div></div></td></tr><tr><td style="font-weight:bold;vertical-align:top;">httponly</td><td style="vertical-align:top;">:</td><td><div></div></td></tr><tr><td style="font-weight:bold;vertical-align:top;">max-age</td><td style="vertical-align:top;">:</td><td><div></div></td></tr><tr><td style="font-weight:bold;vertical-align:top;">path</td><td style="vertical-align:top;">:</td><td><div></div></td></tr><tr><td style="font-weight:bold;vertical-align:top;">secure</td><td style="vertical-align:top;">:</td><td><div></div></td></tr><tr><td style="font-weight:bold;vertical-align:top;">version</td><td style="vertical-align:top;">:</td><td><div></div></td></tr></table></div></td></tr><tr><td style="font-weight:bold;vertical-align:top;">session_id_hw1sub3</td><td style="vertical-align:top;">:</td><td><div>127.0.0.1-0a072570-21a9-46ea-8a28-ae17c9d741f2<table><tr><td style="font-weight:bold;vertical-align:top;">comment</td><td style="vertical-align:top;">:</td><td><div></div></td></tr><tr><td style="font-weight:bold;vertical-align:top;">domain</td><td style="vertical-align:top;">:</td><td><div></div></td></tr><tr><td style="font-weight:bold;vertical-align:top;">expires</td><td style="vertical-align:top;">:</td><td><div></div></td></tr><tr><td style="font-weight:bold;vertical-align:top;">httponly</td><td style="vertical-align:top;">:</td><td><div></div></td></tr><tr><td style="font-weight:bold;vertical-align:top;">max-age</td><td style="vertical-align:top;">:</td><td><div></div></td></tr><tr><td style="font-weight:bold;vertical-align:top;">path</td><td style="vertical-align:top;">:</td><td><div></div></td></tr><tr><td style="font-weight:bold;vertical-align:top;">secure</td><td style="vertical-align:top;">:</td><td><div></div></td></tr><tr><td style="font-weight:bold;vertical-align:top;">version</td><td style="vertical-align:top;">:</td><td><div></div></td></tr></table></div></td></tr><tr><td style="font-weight:bold;vertical-align:top;">session_id_hw1sub4</td><td style="vertical-align:top;">:</td><td><div>127.0.0.1-3723f225-5536-41db-af1e-5a55868fdc8d<table><tr><td style="font-weight:bold;vertical-align:top;">comment</td><td style="vertical-align:top;">:</td><td><div></div></td></tr><tr><td style="font-weight:bold;vertical-align:top;">domain</td><td style="vertical-align:top;">:</td><td><div></div></td></tr><tr><td style="font-weight:bold;vertical-align:top;">expires</td><td style="vertical-align:top;">:</td><td><div></div></td></tr><tr><td style="font-weight:bold;vertical-align:top;">httponly</td><td style="vertical-align:top;">:</td><td><div></div></td></tr><tr><td style="font-weight:bold;vertical-align:top;">max-age</td><td style="vertical-align:top;">:</td><td><div></div></td></tr><tr><td style="font-weight:bold;vertical-align:top;">path</td><td style="vertical-align:top;">:</td><td><div></div></td></tr><tr><td style="font-weight:bold;vertical-align:top;">secure</td><td style="vertical-align:top;">:</td><td><div></div></td></tr><tr><td style="font-weight:bold;vertical-align:top;">version</td><td style="vertical-align:top;">:</td><td><div></div></td></tr></table></div></td></tr><tr><td style="font-weight:bold;vertical-align:top;">session_id_hw2sub1</td><td style="vertical-align:top;">:</td><td><div>127.0.0.1-f8a9274e-c197-4b84-9029-519fe962bd32<table><tr><td style="font-weight:bold;vertical-align:top;">comment</td><td style="vertical-align:top;">:</td><td><div></div></td></tr><tr><td style="font-weight:bold;vertical-align:top;">domain</td><td style="vertical-align:top;">:</td><td><div></div></td></tr><tr><td style="font-weight:bold;vertical-align:top;">expires</td><td style="vertical-align:top;">:</td><td><div></div></td></tr><tr><td style="font-weight:bold;vertical-align:top;">httponly</td><td style="vertical-align:top;">:</td><td><div></div></td></tr><tr><td style="font-weight:bold;vertical-align:top;">max-age</td><td style="vertical-align:top;">:</td><td><div></div></td></tr><tr><td style="font-weight:bold;vertical-align:top;">path</td><td style="vertical-align:top;">:</td><td><div></div></td></tr><tr><td style="font-weight:bold;vertical-align:top;">secure</td><td style="vertical-align:top;">:</td><td><div></div></td></tr><tr><td style="font-weight:bold;vertical-align:top;">version</td><td style="vertical-align:top;">:</td><td><div></div></td></tr></table></div></td></tr><tr><td style="font-weight:bold;vertical-align:top;">session_id_hw2sub2</td><td style="vertical-align:top;">:</td><td><div>127.0.0.1-24da8c36-8f65-446c-9a9a-00a293c6440c<table><tr><td style="font-weight:bold;vertical-align:top;">comment</td><td style="vertical-align:top;">:</td><td><div></div></td></tr><tr><td style="font-weight:bold;vertical-align:top;">domain</td><td style="vertical-align:top;">:</td><td><div></div></td></tr><tr><td style="font-weight:bold;vertical-align:top;">expires</td><td style="vertical-align:top;">:</td><td><div></div></td></tr><tr><td style="font-weight:bold;vertical-align:top;">httponly</td><td style="vertical-align:top;">:</td><td><div></div></td></tr><tr><td style="font-weight:bold;vertical-align:top;">max-age</td><td style="vertical-align:top;">:</td><td><div></div></td></tr><tr><td style="font-weight:bold;vertical-align:top;">path</td><td style="vertical-align:top;">:</td><td><div></div></td></tr><tr><td style="font-weight:bold;vertical-align:top;">secure</td><td style="vertical-align:top;">:</td><td><div></div></td></tr><tr><td style="font-weight:bold;vertical-align:top;">version</td><td style="vertical-align:top;">:</td><td><div></div></td></tr></table></div></td></tr><tr><td style="font-weight:bold;vertical-align:top;">session_id_hw2sub3</td><td style="vertical-align:top;">:</td><td><div>127.0.0.1-2619de95-10e2-44e0-9b06-6aedb65a544e<table><tr><td style="font-weight:bold;vertical-align:top;">comment</td><td style="vertical-align:top;">:</td><td><div></div></td></tr><tr><td style="font-weight:bold;vertical-align:top;">domain</td><td style="vertical-align:top;">:</td><td><div></div></td></tr><tr><td style="font-weight:bold;vertical-align:top;">expires</td><td style="vertical-align:top;">:</td><td><div></div></td></tr><tr><td style="font-weight:bold;vertical-align:top;">httponly</td><td style="vertical-align:top;">:</td><td><div></div></td></tr><tr><td style="font-weight:bold;vertical-align:top;">max-age</td><td style="vertical-align:top;">:</td><td><div></div></td></tr><tr><td style="font-weight:bold;vertical-align:top;">path</td><td style="vertical-align:top;">:</td><td><div></div></td></tr><tr><td style="font-weight:bold;vertical-align:top;">secure</td><td style="vertical-align:top;">:</td><td><div></div></td></tr><tr><td style="font-weight:bold;vertical-align:top;">version</td><td style="vertical-align:top;">:</td><td><div></div></td></tr></table></div></td></tr><tr><td style="font-weight:bold;vertical-align:top;">session_id_hw2sub4</td><td style="vertical-align:top;">:</td><td><div>127.0.0.1-682929c0-5ab4-40b5-aa37-3a6045be344d<table><tr><td style="font-weight:bold;vertical-align:top;">comment</td><td style="vertical-align:top;">:</td><td><div></div></td></tr><tr><td style="font-weight:bold;vertical-align:top;">domain</td><td style="vertical-align:top;">:</td><td><div></div></td></tr><tr><td style="font-weight:bold;vertical-align:top;">expires</td><td style="vertical-align:top;">:</td><td><div></div></td></tr><tr><td style="font-weight:bold;vertical-align:top;">httponly</td><td style="vertical-align:top;">:</td><td><div></div></td></tr><tr><td style="font-weight:bold;vertical-align:top;">max-age</td><td style="vertical-align:top;">:</td><td><div></div></td></tr><tr><td style="font-weight:bold;vertical-align:top;">path</td><td style="vertical-align:top;">:</td><td><div></div></td></tr><tr><td style="font-weight:bold;vertical-align:top;">secure</td><td style="vertical-align:top;">:</td><td><div></div></td></tr><tr><td style="font-weight:bold;vertical-align:top;">version</td><td style="vertical-align:top;">:</td><td><div></div></td></tr></table></div></td></tr><tr><td style="font-weight:bold;vertical-align:top;">session_id_hw3sub1</td><td style="vertical-align:top;">:</td><td><div>127.0.0.1-fafe9c3b-a7ba-4a6e-a550-fa830b18945b<table><tr><td style="font-weight:bold;vertical-align:top;">comment</td><td style="vertical-align:top;">:</td><td><div></div></td></tr><tr><td style="font-weight:bold;vertical-align:top;">domain</td><td style="vertical-align:top;">:</td><td><div></div></td></tr><tr><td style="font-weight:bold;vertical-align:top;">expires</td><td style="vertical-align:top;">:</td><td><div></div></td></tr><tr><td style="font-weight:bold;vertical-align:top;">httponly</td><td style="vertical-align:top;">:</td><td><div></div></td></tr><tr><td style="font-weight:bold;vertical-align:top;">max-age</td><td style="vertical-align:top;">:</td><td><div></div></td></tr><tr><td style="font-weight:bold;vertical-align:top;">path</td><td style="vertical-align:top;">:</td><td><div></div></td></tr><tr><td style="font-weight:bold;vertical-align:top;">secure</td><td style="vertical-align:top;">:</td><td><div></div></td></tr><tr><td style="font-weight:bold;vertical-align:top;">version</td><td style="vertical-align:top;">:</td><td><div></div></td></tr></table></div></td></tr><tr><td style="font-weight:bold;vertical-align:top;">session_id_hw3sub2</td><td style="vertical-align:top;">:</td><td><div>127.0.0.1-beb10d97-7199-43d6-a265-4b7ab37af667<table><tr><td style="font-weight:bold;vertical-align:top;">comment</td><td style="vertical-align:top;">:</td><td><div></div></td></tr><tr><td style="font-weight:bold;vertical-align:top;">domain</td><td style="vertical-align:top;">:</td><td><div></div></td></tr><tr><td style="font-weight:bold;vertical-align:top;">expires</td><td style="vertical-align:top;">:</td><td><div></div></td></tr><tr><td style="font-weight:bold;vertical-align:top;">httponly</td><td style="vertical-align:top;">:</td><td><div></div></td></tr><tr><td style="font-weight:bold;vertical-align:top;">max-age</td><td style="vertical-align:top;">:</td><td><div></div></td></tr><tr><td style="font-weight:bold;vertical-align:top;">path</td><td style="vertical-align:top;">:</td><td><div></div></td></tr><tr><td style="font-weight:bold;vertical-align:top;">secure</td><td style="vertical-align:top;">:</td><td><div></div></td></tr><tr><td style="font-weight:bold;vertical-align:top;">version</td><td style="vertical-align:top;">:</td><td><div></div></td></tr></table></div></td></tr><tr><td style="font-weight:bold;vertical-align:top;">session_id_hw3sub3</td><td style="vertical-align:top;">:</td><td><div>127.0.0.1-a8ae2c72-0e95-4bc1-a154-e7657f199764<table><tr><td style="font-weight:bold;vertical-align:top;">comment</td><td style="vertical-align:top;">:</td><td><div></div></td></tr><tr><td style="font-weight:bold;vertical-align:top;">domain</td><td style="vertical-align:top;">:</td><td><div></div></td></tr><tr><td style="font-weight:bold;vertical-align:top;">expires</td><td style="vertical-align:top;">:</td><td><div></div></td></tr><tr><td style="font-weight:bold;vertical-align:top;">httponly</td><td style="vertical-align:top;">:</td><td><div></div></td></tr><tr><td style="font-weight:bold;vertical-align:top;">max-age</td><td style="vertical-align:top;">:</td><td><div></div></td></tr><tr><td style="font-weight:bold;vertical-align:top;">path</td><td style="vertical-align:top;">:</td><td><div></div></td></tr><tr><td style="font-weight:bold;vertical-align:top;">secure</td><td style="vertical-align:top;">:</td><td><div></div></td></tr><tr><td style="font-weight:bold;vertical-align:top;">version</td><td style="vertical-align:top;">:</td><td><div></div></td></tr></table></div></td></tr><tr><td style="font-weight:bold;vertical-align:top;">session_id_hw3sub4</td><td style="vertical-align:top;">:</td><td><div>127.0.0.1-1dd61602-858e-4cbc-9574-a9ac32b108c6<table><tr><td style="font-weight:bold;vertical-align:top;">comment</td><td style="vertical-align:top;">:</td><td><div></div></td></tr><tr><td style="font-weight:bold;vertical-align:top;">domain</td><td style="vertical-align:top;">:</td><td><div></div></td></tr><tr><td style="font-weight:bold;vertical-align:top;">expires</td><td style="vertical-align:top;">:</td><td><div></div></td></tr><tr><td style="font-weight:bold;vertical-align:top;">httponly</td><td style="vertical-align:top;">:</td><td><div></div></td></tr><tr><td style="font-weight:bold;vertical-align:top;">max-age</td><td style="vertical-align:top;">:</td><td><div></div></td></tr><tr><td style="font-weight:bold;vertical-align:top;">path</td><td style="vertical-align:top;">:</td><td><div></div></td></tr><tr><td style="font-weight:bold;vertical-align:top;">secure</td><td style="vertical-align:top;">:</td><td><div></div></td></tr><tr><td style="font-weight:bold;vertical-align:top;">version</td><td style="vertical-align:top;">:</td><td><div></div></td></tr></table></div></td></tr><tr><td style="font-weight:bold;vertical-align:top;">session_id_slugwiki</td><td style="vertical-align:top;">:</td><td><div>127.0.0.1-a2c7ba1c-f0d5-4c8f-a7f8-85d68972855d<table><tr><td style="font-weight:bold;vertical-align:top;">comment</td><td style="vertical-align:top;">:</td><td><div></div></td></tr><tr><td style="font-weight:bold;vertical-align:top;">domain</td><td style="vertical-align:top;">:</td><td><div></div></td></tr><tr><td style="font-weight:bold;vertical-align:top;">expires</td><td style="vertical-align:top;">:</td><td><div></div></td></tr><tr><td style="font-weight:bold;vertical-align:top;">httponly</td><td style="vertical-align:top;">:</td><td><div></div></td></tr><tr><td style="font-weight:bold;vertical-align:top;">max-age</td><td style="vertical-align:top;">:</td><td><div></div></td></tr><tr><td style="font-weight:bold;vertical-align:top;">path</td><td style="vertical-align:top;">:</td><td><div></div></td></tr><tr><td style="font-weight:bold;vertical-align:top;">secure</td><td style="vertical-align:top;">:</td><td><div></div></td></tr><tr><td style="font-weight:bold;vertical-align:top;">version</td><td style="vertical-align:top;">:</td><td><div></div></td></tr></table></div></td></tr><tr><td style="font-weight:bold;vertical-align:top;">session_id_welcome</td><td style="vertical-align:top;">:</td><td><div>127.0.0.1-2f19e501-eae8-4922-bb7d-b29b66c5c9ca<table><tr><td style="font-weight:bold;vertical-align:top;">comment</td><td style="vertical-align:top;">:</td><td><div></div></td></tr><tr><td style="font-weight:bold;vertical-align:top;">domain</td><td style="vertical-align:top;">:</td><td><div></div></td></tr><tr><td style="font-weight:bold;vertical-align:top;">expires</td><td style="vertical-align:top;">:</td><td><div></div></td></tr><tr><td style="font-weight:bold;vertical-align:top;">httponly</td><td style="vertical-align:top;">:</td><td><div></div></td></tr><tr><td style="font-weight:bold;vertical-align:top;">max-age</td><td style="vertical-align:top;">:</td><td><div></div></td></tr><tr><td style="font-weight:bold;vertical-align:top;">path</td><td style="vertical-align:top;">:</td><td><div></div></td></tr><tr><td style="font-weight:bold;vertical-align:top;">secure</td><td style="vertical-align:top;">:</td><td><div></div></td></tr><tr><td style="font-weight:bold;vertical-align:top;">version</td><td style="vertical-align:top;">:</td><td><div></div></td></tr></table></div></td></tr></table></div></td></tr><tr><td style="font-weight:bold;vertical-align:top;">env</td><td style="vertical-align:top;">:</td><td><div><table><tr><td style="font-weight:bold;vertical-align:top;">HTTP_ACCEPT</td><td style="vertical-align:top;">:</td><td><div>text/html,application/xhtml+xml,application/xml;q=0.9,image/webp,*/*;q=0.8</div></td></tr><tr><td style="font-weight:bold;vertical-align:top;">HTTP_ACCEPT_ENCODING</td><td style="vertical-align:top;">:</td><td><div>gzip, deflate, sdch</div></td></tr><tr><td style="font-weight:bold;vertical-align:top;">HTTP_ACCEPT_LANGUAGE</td><td style="vertical-align:top;">:</td><td><div>en-US,en;q=0.8,es;q=0.6</div></td></tr><tr><td style="font-weight:bold;vertical-align:top;">HTTP_CACHE_CONTROL</td><td style="vertical-align:top;">:</td><td><div>max-age=0</div></td></tr><tr><td style="font-weight:bold;vertical-align:top;">HTTP_CONNECTION</td><td style="vertical-align:top;">:</td><td><div>keep-alive</div></td></tr><tr><td style="font-weight:bold;vertical-align:top;">HTTP_COOKIE</td><td style="vertical-align:top;">:</td><td><div>session_id_hw1sub2=127.0.0.1-aad81459-e3e8-42c2-9d0f-8958df37866d; session_id_hw1sub3=127.0.0.1-0a072570-21a9-46ea-8a28-ae17c9d741f2; session_id_hw1sub4=127.0.0.1-3723f225-5536-41db-af1e-5a55868fdc8d; session_id_hw2sub1=127.0.0.1-f8a9274e-c197-4b84-9029-519fe962bd32; session_id_hw2sub2=127.0.0.1-24da8c36-8f65-446c-9a9a-00a293c6440c; session_id_hw2sub3=127.0.0.1-2619de95-10e2-44e0-9b06-6aedb65a544e; session_id_hw2sub4=127.0.0.1-682929c0-5ab4-40b5-aa37-3a6045be344d; session_id_hw3sub2=127.0.0.1-beb10d97-7199-43d6-a265-4b7ab37af667; session_id_hw3sub1=127.0.0.1-fafe9c3b-a7ba-4a6e-a550-fa830b18945b; session_id_hw3sub3=127.0.0.1-a8ae2c72-0e95-4bc1-a154-e7657f199764; session_id_hw3sub4=127.0.0.1-1dd61602-858e-4cbc-9574-a9ac32b108c6; session_id_slugwiki=127.0.0.1-a2c7ba1c-f0d5-4c8f-a7f8-85d68972855d; session_id_forsale=127.0.0.1-5ba3b18e-b5a8-46ec-acc8-0b06290c576e; session_id_bboard=127.0.0.1-37bcd687-01af-4f07-ae43-a148a564d53a; session_id_welcome=127.0.0.1-2f19e501-eae8-4922-bb7d-b29b66c5c9ca; session_id_ballislife=127.0.0.1-896f9c66-134b-4892-a036-e9b594e6842a; session_id_admin=127.0.0.1-f1335486-80a6-49cd-83c4-91f7302de265</div></td></tr><tr><td style="font-weight:bold;vertical-align:top;">HTTP_HOST</td><td style="vertical-align:top;">:</td><td><div>127.0.0.1:8000</div></td></tr><tr><td style="font-weight:bold;vertical-align:top;">HTTP_REFERER</td><td style="vertical-align:top;">:</td><td><div>http://127.0.0.1:8000/ballislife/default/index</div></td></tr><tr><td style="font-weight:bold;vertical-align:top;">HTTP_USER_AGENT</td><td style="vertical-align:top;">:</td><td><div>Mozilla/5.0 (Macintosh; Intel Mac OS X 10_10_1) AppleWebKit/537.36 (KHTML, like Gecko) Chrome/40.0.2214.111 Safari/537.36</div></td></tr><tr><td style="font-weight:bold;vertical-align:top;">PATH_INFO</td><td style="vertical-align:top;">:</td><td><div>/ballislife/default/stats.html</div></td></tr><tr><td style="font-weight:bold;vertical-align:top;">QUERY_STRING</td><td style="vertical-align:top;">:</td><td><div></div></td></tr><tr><td style="font-weight:bold;vertical-align:top;">REMOTE_ADDR</td><td style="vertical-align:top;">:</td><td><div>127.0.0.1</div></td></tr><tr><td style="font-weight:bold;vertical-align:top;">REMOTE_PORT</td><td style="vertical-align:top;">:</td><td><div>65183</div></td></tr><tr><td style="font-weight:bold;vertical-align:top;">REQUEST_METHOD</td><td style="vertical-align:top;">:</td><td><div>GET</div></td></tr><tr><td style="font-weight:bold;vertical-align:top;">SCRIPT_NAME</td><td style="vertical-align:top;">:</td><td><div></div></td></tr><tr><td style="font-weight:bold;vertical-align:top;">SERVER_NAME</td><td style="vertical-align:top;">:</td><td><div>Alyans-MacBook-Pro-3.local</div></td></tr><tr><td style="font-weight:bold;vertical-align:top;">SERVER_PORT</td><td style="vertical-align:top;">:</td><td><div>8000</div></td></tr><tr><td style="font-weight:bold;vertical-align:top;">SERVER_PROTOCOL</td><td style="vertical-align:top;">:</td><td><div>HTTP/1.1</div></td></tr><tr><td style="font-weight:bold;vertical-align:top;">SERVER_SOFTWARE</td><td style="vertical-align:top;">:</td><td><div>Rocket 1.2.6</div></td></tr><tr><td style="font-weight:bold;vertical-align:top;">app_folders</td><td style="vertical-align:top;">:</td><td><div>set([&#x27;/Users/AlyanShafique/Documents/web2py/web2py/applications/admin/&#x27;, &#x27;/Users/AlyanShafique/Documents/web2py/web2py/applications/ballislife/&#x27;, &#x27;/Users/AlyanShafique/Documents/web2py/web2py/applications/welcome/&#x27;])</div></td></tr><tr><td style="font-weight:bold;vertical-align:top;">applications_parent</td><td style="vertical-align:top;">:</td><td><div>/Users/AlyanShafique/Documents/web2py/web2py</div></td></tr><tr><td style="font-weight:bold;vertical-align:top;">cmd_args</td><td style="vertical-align:top;">:</td><td><div><table></table></div></td></tr><tr><td style="font-weight:bold;vertical-align:top;">cmd_options</td><td style="vertical-align:top;">:</td><td><div>&lt;Values at 0x103d144d0: {&#x27;verbose&#x27;: False, &#x27;ip&#x27;: &#x27;127.0.0.1&#x27;, &#x27;debuglevel&#x27;: 30, &#x27;with_scheduler&#x27;: False, &#x27;ips&#x27;: [&#x27;192.168.1.10&#x27;, &#x27;fe80::7ed1:c3ff:fe6f:687e%en1&#x27;], &#x27;shutdown_timeout&#x27;: 5, &#x27;taskbar&#x27;: False, &#x27;with_coverage&#x27;: False, &#x27;scheduler_groups&#x27;: None, &#x27;port&#x27;: 8000, &#x27;maxthreads&#x27;: None, &#x27;softcron&#x27;: False, &#x27;server_name&#x27;: &#x27;Alyans-MacBook-Pro-3.local&#x27;, &#x27;bpython&#x27;: False, &#x27;nogui&#x27;: False, &#x27;pid_filename&#x27;: &#x27;httpserver.pid&#x27;, &#x27;print_errors&#x27;: False, &#x27;extcron&#x27;: False, &#x27;runcron&#x27;: False, &#x27;run_system_tests&#x27;: False, &#x27;test&#x27;: None, &#x27;folder&#x27;: &#x27;/Users/AlyanShafique/Documents/web2py/web2py&#x27;, &#x27;config&#x27;: &#x27;&#x27;, &#x27;minthreads&#x27;: None, &#x27;shell&#x27;: None, &#x27;run&#x27;: &#x27;&#x27;, &#x27;log_filename&#x27;: &#x27;httpserver.log&#x27;, &#x27;profiler_dir&#x27;: None, &#x27;args&#x27;: [&#x27;&#x27;], &#x27;socket_timeout&#x27;: 5, &#x27;ssl_ca_certificate&#x27;: None, &#x27;scheduler&#x27;: None, &#x27;interfaces&#x27;: None, &#x27;ssl_private_key&#x27;: &#x27;&#x27;, &#x27;gae&#x27;: None, &#x27;password&#x27;: &#x27;&lt;ask&gt;&#x27;, &#x27;request_queue_size&#x27;: 5, &#x27;ssl_certificate&#x27;: &#x27;&#x27;, &#x27;cronjob&#x27;: False, &#x27;numthreads&#x27;: None, &#x27;quiet&#x27;: False, &#x27;import_models&#x27;: False, &#x27;timeout&#x27;: 10, &#x27;plain&#x27;: False, &#x27;nobanner&#x27;: False}&gt;</div></td></tr><tr><td style="font-weight:bold;vertical-align:top;">db_sessions</td><td style="vertical-align:top;">:</td><td><div>set([])</div></td></tr><tr><td style="font-weight:bold;vertical-align:top;">debugging</td><td style="vertical-align:top;">:</td><td><div>False</div></td></tr><tr><td style="font-weight:bold;vertical-align:top;">gluon_parent</td><td style="vertical-align:top;">:</td><td><div>/Users/AlyanShafique/Documents/web2py/web2py</div></td></tr><tr><td style="font-weight:bold;vertical-align:top;">http_accept</td><td style="vertical-align:top;">:</td><td><div>text/html,application/xhtml+xml,application/xml;q=0.9,image/webp,*/*;q=0.8</div></td></tr><tr><td style="font-weight:bold;vertical-align:top;">http_accept_encoding</td><td style="vertical-align:top;">:</td><td><div>gzip, deflate, sdch</div></td></tr><tr><td style="font-weight:bold;vertical-align:top;">http_accept_language</td><td style="vertical-align:top;">:</td><td><div>en-US,en;q=0.8,es;q=0.6</div></td></tr><tr><td style="font-weight:bold;vertical-align:top;">http_cache_control</td><td style="vertical-align:top;">:</td><td><div>max-age=0</div></td></tr><tr><td style="font-weight:bold;vertical-align:top;">http_connection</td><td style="vertical-align:top;">:</td><td><div>keep-alive</div></td></tr><tr><td style="font-weight:bold;vertical-align:top;">http_cookie</td><td style="vertical-align:top;">:</td><td><div>session_id_hw1sub2=127.0.0.1-aad81459-e3e8-42c2-9d0f-8958df37866d; session_id_hw1sub3=127.0.0.1-0a072570-21a9-46ea-8a28-ae17c9d741f2; session_id_hw1sub4=127.0.0.1-3723f225-5536-41db-af1e-5a55868fdc8d; session_id_hw2sub1=127.0.0.1-f8a9274e-c197-4b84-9029-519fe962bd32; session_id_hw2sub2=127.0.0.1-24da8c36-8f65-446c-9a9a-00a293c6440c; session_id_hw2sub3=127.0.0.1-2619de95-10e2-44e0-9b06-6aedb65a544e; session_id_hw2sub4=127.0.0.1-682929c0-5ab4-40b5-aa37-3a6045be344d; session_id_hw3sub2=127.0.0.1-beb10d97-7199-43d6-a265-4b7ab37af667; session_id_hw3sub1=127.0.0.1-fafe9c3b-a7ba-4a6e-a550-fa830b18945b; session_id_hw3sub3=127.0.0.1-a8ae2c72-0e95-4bc1-a154-e7657f199764; session_id_hw3sub4=127.0.0.1-1dd61602-858e-4cbc-9574-a9ac32b108c6; session_id_slugwiki=127.0.0.1-a2c7ba1c-f0d5-4c8f-a7f8-85d68972855d; session_id_forsale=127.0.0.1-5ba3b18e-b5a8-46ec-acc8-0b06290c576e; session_id_bboard=127.0.0.1-37bcd687-01af-4f07-ae43-a148a564d53a; session_id_welcome=127.0.0.1-2f19e501-eae8-4922-bb7d-b29b66c5c9ca; session_id_ballislife=127.0.0.1-896f9c66-134b-4892-a036-e9b594e6842a; session_id_admin=127.0.0.1-f1335486-80a6-49cd-83c4-91f7302de265</div></td></tr><tr><td style="font-weight:bold;vertical-align:top;">http_host</td><td style="vertical-align:top;">:</td><td><div>127.0.0.1:8000</div></td></tr><tr><td style="font-weight:bold;vertical-align:top;">http_referer</td><td style="vertical-align:top;">:</td><td><div>http://127.0.0.1:8000/ballislife/default/index</div></td></tr><tr><td style="font-weight:bold;vertical-align:top;">http_user_agent</td><td style="vertical-align:top;">:</td><td><div>Mozilla/5.0 (Macintosh; Intel Mac OS X 10_10_1) AppleWebKit/537.36 (KHTML, like Gecko) Chrome/40.0.2214.111 Safari/537.36</div></td></tr><tr><td style="font-weight:bold;vertical-align:top;">is_jython</td><td style="vertical-align:top;">:</td><td><div>False</div></td></tr><tr><td style="font-weight:bold;vertical-align:top;">is_pypy</td><td style="vertical-align:top;">:</td><td><div>False</div></td></tr><tr><td style="font-weight:bold;vertical-align:top;">is_source</td><td style="vertical-align:top;">:</td><td><div>True</div></td></tr><tr><td style="font-weight:bold;vertical-align:top;">local_hosts</td><td style="vertical-align:top;">:</td><td><div><table><tr><td><div>192.168.1.10</div></td></tr><tr><td><div>::ffff:127.0.0.1</div></td></tr><tr><td><div>::1</div></td></tr><tr><td><div>fe80::7ed1:c3ff:fe6f:687e%en1</div></td></tr><tr><td><div>Alyans-MacBook-Pro-3.local</div></td></tr><tr><td><div>127.0.0.1</div></td></tr></table></div></td></tr><tr><td style="font-weight:bold;vertical-align:top;">path_info</td><td style="vertical-align:top;">:</td><td><div>/ballislife/default/stats.html</div></td></tr><tr><td style="font-weight:bold;vertical-align:top;">query_string</td><td style="vertical-align:top;">:</td><td><div></div></td></tr><tr><td style="font-weight:bold;vertical-align:top;">remote_addr</td><td style="vertical-align:top;">:</td><td><div>127.0.0.1</div></td></tr><tr><td style="font-weight:bold;vertical-align:top;">remote_port</td><td style="vertical-align:top;">:</td><td><div>65183</div></td></tr><tr><td style="font-weight:bold;vertical-align:top;">request_method</td><td style="vertical-align:top;">:</td><td><div>GET</div></td></tr><tr><td style="font-weight:bold;vertical-align:top;">request_uri</td><td style="vertical-align:top;">:</td><td><div>/ballislife/default/stats.html</div></td></tr><tr><td style="font-weight:bold;vertical-align:top;">script_name</td><td style="vertical-align:top;">:</td><td><div></div></td></tr><tr><td style="font-weight:bold;vertical-align:top;">server_name</td><td style="vertical-align:top;">:</td><td><div>Alyans-MacBook-Pro-3.local</div></td></tr><tr><td style="font-weight:bold;vertical-align:top;">server_port</td><td style="vertical-align:top;">:</td><td><div>8000</div></td></tr><tr><td style="font-weight:bold;vertical-align:top;">server_protocol</td><td style="vertical-align:top;">:</td><td><div>HTTP/1.1</div></td></tr><tr><td style="font-weight:bold;vertical-align:top;">server_software</td><td style="vertical-align:top;">:</td><td><div>Rocket 1.2.6</div></td></tr><tr><td style="font-weight:bold;vertical-align:top;">web2py_path</td><td style="vertical-align:top;">:</td><td><div>/Users/AlyanShafique/Documents/web2py/web2py</div></td></tr><tr><td style="font-weight:bold;vertical-align:top;">web2py_version</td><td style="vertical-align:top;">:</td><td><div>2.9.12-stable+timestamp.2015.02.13.23.31.09</div></td></tr><tr><td style="font-weight:bold;vertical-align:top;">wsgi.errors</td><td style="vertical-align:top;">:</td><td><div>&lt;open file &#x27;&lt;stderr&gt;&#x27;, mode &#x27;w&#x27; at 0x10028e1e0&gt;</div></td></tr><tr><td style="font-weight:bold;vertical-align:top;">wsgi.file_wrapper</td><td style="vertical-align:top;">:</td><td><div>&lt;class wsgiref.util.FileWrapper at 0x1039b1120&gt;</div></td></tr><tr><td style="font-weight:bold;vertical-align:top;">wsgi.input</td><td style="vertical-align:top;">:</td><td><div>&lt;socket._fileobject object at 0x11086aed0&gt;</div></td></tr><tr><td style="font-weight:bold;vertical-align:top;">wsgi.multiprocess</td><td style="vertical-align:top;">:</td><td><div>False</div></td></tr><tr><td style="font-weight:bold;vertical-align:top;">wsgi.multithread</td><td style="vertical-align:top;">:</td><td><div>True</div></td></tr><tr><td style="font-weight:bold;vertical-align:top;">wsgi.run_once</td><td style="vertical-align:top;">:</td><td><div>False</div></td></tr><tr><td style="font-weight:bold;vertical-align:top;">wsgi.url_scheme</td><td style="vertical-align:top;">:</td><td><div>http</div></td></tr><tr><td style="font-weight:bold;vertical-align:top;">wsgi.version</td><td style="vertical-align:top;">:</td><td><div><table><tr><td><div>1</div></td></tr><tr><td><div>0</div></td></tr></table></div></td></tr><tr><td style="font-weight:bold;vertical-align:top;">wsgi_errors</td><td style="vertical-align:top;">:</td><td><div>&lt;open file &#x27;&lt;stderr&gt;&#x27;, mode &#x27;w&#x27; at 0x10028e1e0&gt;</div></td></tr><tr><td style="font-weight:bold;vertical-align:top;">wsgi_file_wrapper</td><td style="vertical-align:top;">:</td><td><div>&lt;class wsgiref.util.FileWrapper at 0x1039b1120&gt;</div></td></tr><tr><td style="font-weight:bold;vertical-align:top;">wsgi_input</td><td style="vertical-align:top;">:</td><td><div>&lt;socket._fileobject object at 0x11086aed0&gt;</div></td></tr><tr><td style="font-weight:bold;vertical-align:top;">wsgi_multiprocess</td><td style="vertical-align:top;">:</td><td><div>False</div></td></tr><tr><td style="font-weight:bold;vertical-align:top;">wsgi_multithread</td><td style="vertical-align:top;">:</td><td><div>True</div></td></tr><tr><td style="font-weight:bold;vertical-align:top;">wsgi_run_once</td><td style="vertical-align:top;">:</td><td><div>False</div></td></tr><tr><td style="font-weight:bold;vertical-align:top;">wsgi_url_scheme</td><td style="vertical-align:top;">:</td><td><div>http</div></td></tr><tr><td style="font-weight:bold;vertical-align:top;">wsgi_version</td><td style="vertical-align:top;">:</td><td><div><table><tr><td><div>1</div></td></tr><tr><td><div>0</div></td></tr></table></div></td></tr></table></div></td></tr><tr><td style="font-weight:bold;vertical-align:top;">extension</td><td style="vertical-align:top;">:</td><td><div>html</div></td></tr><tr><td style="font-weight:bold;vertical-align:top;">folder</td><td style="vertical-align:top;">:</td><td><div>/Users/AlyanShafique/Documents/web2py/web2py/applications/ballislife/</div></td></tr><tr><td style="font-weight:bold;vertical-align:top;">function</td><td style="vertical-align:top;">:</td><td><div>stats</div></td></tr><tr><td style="font-weight:bold;vertical-align:top;">global_settings</td><td style="vertical-align:top;">:</td><td><div><table><tr><td style="font-weight:bold;vertical-align:top;">app_folders</td><td style="vertical-align:top;">:</td><td><div>set([&#x27;/Users/AlyanShafique/Documents/web2py/web2py/applications/admin/&#x27;, &#x27;/Users/AlyanShafique/Documents/web2py/web2py/applications/ballislife/&#x27;, &#x27;/Users/AlyanShafique/Documents/web2py/web2py/applications/welcome/&#x27;])</div></td></tr><tr><td style="font-weight:bold;vertical-align:top;">applications_parent</td><td style="vertical-align:top;">:</td><td><div>/Users/AlyanShafique/Documents/web2py/web2py</div></td></tr><tr><td style="font-weight:bold;vertical-align:top;">cmd_args</td><td style="vertical-align:top;">:</td><td><div><table></table></div></td></tr><tr><td style="font-weight:bold;vertical-align:top;">cmd_options</td><td style="vertical-align:top;">:</td><td><div>&lt;Values at 0x103d144d0: {&#x27;verbose&#x27;: False, &#x27;ip&#x27;: &#x27;127.0.0.1&#x27;, &#x27;debuglevel&#x27;: 30, &#x27;with_scheduler&#x27;: False, &#x27;ips&#x27;: [&#x27;192.168.1.10&#x27;, &#x27;fe80::7ed1:c3ff:fe6f:687e%en1&#x27;], &#x27;shutdown_timeout&#x27;: 5, &#x27;taskbar&#x27;: False, &#x27;with_coverage&#x27;: False, &#x27;scheduler_groups&#x27;: None, &#x27;port&#x27;: 8000, &#x27;maxthreads&#x27;: None, &#x27;softcron&#x27;: False, &#x27;server_name&#x27;: &#x27;Alyans-MacBook-Pro-3.local&#x27;, &#x27;bpython&#x27;: False, &#x27;nogui&#x27;: False, &#x27;pid_filename&#x27;: &#x27;httpserver.pid&#x27;, &#x27;print_errors&#x27;: False, &#x27;extcron&#x27;: False, &#x27;runcron&#x27;: False, &#x27;run_system_tests&#x27;: False, &#x27;test&#x27;: None, &#x27;folder&#x27;: &#x27;/Users/AlyanShafique/Documents/web2py/web2py&#x27;, &#x27;config&#x27;: &#x27;&#x27;, &#x27;minthreads&#x27;: None, &#x27;shell&#x27;: None, &#x27;run&#x27;: &#x27;&#x27;, &#x27;log_filename&#x27;: &#x27;httpserver.log&#x27;, &#x27;profiler_dir&#x27;: None, &#x27;args&#x27;: [&#x27;&#x27;], &#x27;socket_timeout&#x27;: 5, &#x27;ssl_ca_certificate&#x27;: None, &#x27;scheduler&#x27;: None, &#x27;interfaces&#x27;: None, &#x27;ssl_private_key&#x27;: &#x27;&#x27;, &#x27;gae&#x27;: None, &#x27;password&#x27;: &#x27;&lt;ask&gt;&#x27;, &#x27;request_queue_size&#x27;: 5, &#x27;ssl_certificate&#x27;: &#x27;&#x27;, &#x27;cronjob&#x27;: False, &#x27;numthreads&#x27;: None, &#x27;quiet&#x27;: False, &#x27;import_models&#x27;: False, &#x27;timeout&#x27;: 10, &#x27;plain&#x27;: False, &#x27;nobanner&#x27;: False}&gt;</div></td></tr><tr><td style="font-weight:bold;vertical-align:top;">db_sessions</td><td style="vertical-align:top;">:</td><td><div>set([])</div></td></tr><tr><td style="font-weight:bold;vertical-align:top;">debugging</td><td style="vertical-align:top;">:</td><td><div>False</div></td></tr><tr><td style="font-weight:bold;vertical-align:top;">gluon_parent</td><td style="vertical-align:top;">:</td><td><div>/Users/AlyanShafique/Documents/web2py/web2py</div></td></tr><tr><td style="font-weight:bold;vertical-align:top;">is_jython</td><td style="vertical-align:top;">:</td><td><div>False</div></td></tr><tr><td style="font-weight:bold;vertical-align:top;">is_pypy</td><td style="vertical-align:top;">:</td><td><div>False</div></td></tr><tr><td style="font-weight:bold;vertical-align:top;">is_source</td><td style="vertical-align:top;">:</td><td><div>True</div></td></tr><tr><td style="font-weight:bold;vertical-align:top;">local_hosts</td><td style="vertical-align:top;">:</td><td><div><table><tr><td><div>192.168.1.10</div></td></tr><tr><td><div>::ffff:127.0.0.1</div></td></tr><tr><td><div>::1</div></td></tr><tr><td><div>fe80::7ed1:c3ff:fe6f:687e%en1</div></td></tr><tr><td><div>Alyans-MacBook-Pro-3.local</div></td></tr><tr><td><div>127.0.0.1</div></td></tr></table></div></td></tr><tr><td style="font-weight:bold;vertical-align:top;">web2py_version</td><td style="vertical-align:top;">:</td><td><div>2.9.12-stable+timestamp.2015.02.13.23.31.09</div></td></tr></table></div></td></tr><tr><td style="font-weight:bold;vertical-align:top;">is_https</td><td style="vertical-align:top;">:</td><td><div>False</div></td></tr><tr><td style="font-weight:bold;vertical-align:top;">is_local</td><td style="vertical-align:top;">:</td><td><div>True</div></td></tr><tr><td style="font-weight:bold;vertical-align:top;">is_restful</td><td style="vertical-align:top;">:</td><td><div>False</div></td></tr><tr><td style="font-weight:bold;vertical-align:top;">is_sheduler</td><td style="vertical-align:top;">:</td><td><div>None</div></td></tr><tr><td style="font-weight:bold;vertical-align:top;">is_shell</td><td style="vertical-align:top;">:</td><td><div>None</div></td></tr><tr><td style="font-weight:bold;vertical-align:top;">now</td><td style="vertical-align:top;">:</td><td><div>datetime.datetime(2015, 2, 23, 21, 15, 15, 817360)</div></td></tr><tr><td style="font-weight:bold;vertical-align:top;">raw_args</td><td style="vertical-align:top;">:</td><td><div></div></td></tr><tr><td style="font-weight:bold;vertical-align:top;">raw_extension</td><td style="vertical-align:top;">:</td><td><div>html</div></td></tr><tr><td style="font-weight:bold;vertical-align:top;">url</td><td style="vertical-align:top;">:</td><td><div>/ballislife/default/stats.html</div></td></tr><tr><td style="font-weight:bold;vertical-align:top;">utcnow</td><td style="vertical-align:top;">:</td><td><div>datetime.datetime(2015, 2, 24, 5, 15, 15, 817399)</div></td></tr><tr><td style="font-weight:bold;vertical-align:top;">uuid</td><td style="vertical-align:top;">:</td><td><div>ballislife/127.0.0.1.2015-02-23.21-15-15.b8be13aa-bdd3-429b-8536-9524d1f9a297</div></td></tr><tr><td style="font-weight:bold;vertical-align:top;">wsgi</td><td style="vertical-align:top;">:</td><td><div>&lt;gluon.main.LazyWSGI object at 0x10ff66250&gt;</div></td></tr></table></div>'
tRp75
sS'frames'
p76
(lp77
(dp78
S'file'
p79
S'/Users/AlyanShafique/Documents/web2py/web2py/gluon/restricted.py'
p80
sS'dump'
p81
(dp82
S'environment'
p83
S"{'A': <class 'gluon.html.A'>, 'ANY_OF': <class 'gluon.validators.ANY_OF'>, 'ASSIGNJS': <function ASSIGNJS>, 'Auth': <class 'gluon.tools.Auth'>, 'B': <class 'gluon.html.B'>, 'BEAUTIFY': <class 'gluon.html.BEAUTIFY'>, 'BODY': <class 'gluon.html.BODY'>, 'BR': <class 'gluon.html.BR'>, 'BUTTON': <class 'gluon.html.BUTTON'>, 'CAT': <class 'gluon.html.CAT'>, ...}"
p84
sS'ccode'
p85
S'<code object <module> at 0x1122b28b0, file "/Use...ions/ballislife/controllers/default.py", line 11>'
p86
ssS'lnum'
p87
I226
sS'lines'
p88
(dp89
I224
S'        else:'
p90
sI225
S'            ccode = compile2(code, layer)'
p91
sI226
S'        exec ccode in environment'
p92
sI227
S'    except HTTP:'
p93
sI228
S'        raise'
p94
sI229
S'    except RestrictedError:'
p95
sI230
S'        # do not encapsulate (obfuscate) the original RestrictedError'
p96
sI221
S'    try:'
p97
sI222
S'        if isinstance(code, types.CodeType):'
p98
sI223
S'            ccode = code'
p99
ssS'call'
p100
S"(code='# -*- coding: utf-8 -*-\\n# this file is released ...e,rules)\\n\\nresponse._vars=response._caller(stats)\\n', environment={'A': <class 'gluon.html.A'>, 'ANY_OF': <class 'gluon.validators.ANY_OF'>, 'ASSIGNJS': <function ASSIGNJS>, 'Auth': <class 'gluon.tools.Auth'>, 'B': <class 'gluon.html.B'>, 'BEAUTIFY': <class 'gluon.html.BEAUTIFY'>, 'BODY': <class 'gluon.html.BODY'>, 'BR': <class 'gluon.html.BR'>, 'BUTTON': <class 'gluon.html.BUTTON'>, 'CAT': <class 'gluon.html.CAT'>, ...}, layer='/Users/AlyanShafique/Documents/web2py/web2py/applications/ballislife/controllers/default.py')"
p101
sS'func'
p102
S'restricted'
p103
sa(dp104
g79
S'/Users/AlyanShafique/Documents/web2py/web2py/applications/ballislife/controllers/default.py'
p105
sg81
(dp106
sg87
I512
sg88
(dp107
I501
S'def api():'
p108
sI502
S'    """'
p109
sI503
S'    this is example of API with access control'
p110
sI504
S'    WEB2PY provides Hypermedia API (Collection+JSON) Experimental'
p111
sI505
S'    """'
p112
sI506
S'    from gluon.contrib.hypermedia import Collection'
p113
sI507
S'    rules = {'
p114
sI508
S"        '<tablename>': {'GET':{},'POST':{},'PUT':{},'DELETE':{}},"
p115
sI509
S'        }'
p116
sI510
S'    return Collection(db).process(request,response,rules)'
p117
ssg100
S'()'
p118
sg102
S'<module>'
p119
sa(dp120
g79
S'/Users/AlyanShafique/Documents/web2py/web2py/gluon/globals.py'
p121
sg81
(dp122
S'self'
p123
S'undefined'
p124
sS'f'
S'<function stats>'
p125
ssg87
I393
sg88
(dp126
I388
S"        self.flash = ''            # used by the default view layout"
p127
sI389
S'        self.meta = Storage()      # used by web2py_ajax.html'
p128
sI390
S'        self.menu = []             # used by the default view layout'
p129
sI391
S'        self.files = []            # used by web2py_ajax.html'
p130
sI392
S'        self._vars = None'
p131
sI393
S'        self._caller = lambda f: f()'
p132
sI394
S'        self._view_environment = None'
p133
sI395
S'        self._custom_commit = None'
p134
sI396
S'        self._custom_rollback = None'
p135
sI397
S"        self.generic_patterns = ['*']"
p136
ssg100
S'(f=<function stats>)'
p137
sg102
S'<lambda>'
p138
sa(dp139
g79
S'/Users/AlyanShafique/Documents/web2py/web2py/applications/ballislife/controllers/default.py'
p140
sg81
(dp141
S'y'
S"'markieff morris'"
p142
sS'x'
S"'suns'"
p143
sS'global find_stats'
p144
S'<function find_stats>'
p145
ssg87
I441
sg88
(dp146
I436
S'    #        find_stats(y,teams[x][y])'
p147
sI437
S'    #        print count'
p148
sI438
S'    #        print(teams[x][y])'
p149
sI439
S'    for x in teams:'
p150
sI440
S'        for y in teams[x]:'
p151
sI441
S'            find_stats(y, x)'
p152
sI442
S'            print y'
p153
sI443
S'            print x'
p154
sI444
S"    #find_stats('Stephen Curry','201939')"
p155
sI445
S"    #find_stats('James Harden','201935')"
p156
ssg100
S'()'
p157
sg102
S'stats'
p158
sa(dp159
g79
S'/Users/AlyanShafique/Documents/web2py/web2py/applications/ballislife/controllers/default.py'
p160
sg81
(dp161
S'response'
p162
S'<Response [400]>'
p163
sS'shots'
p164
g124
sS'response.json'
p165
S'<bound method Response.json of <Response [400]>>'
p166
ssg87
I353
sg88
(dp167
I352
S'    response = requests.get(url)'
p168
sI353
S"    shots = response.json()['resultSets'][0]['rowSet']"
p169
sI354
S'    data = simplejson.loads(response.text)'
p170
sI355
S"    #print ('================================')"
p171
sI356
S'    #print data'
p172
sI357
S'    #Create df from data and find averages'
p173
sI348
S"    'PerMode=PerGame&Period=0&PlayerID='+player_id+'+&PlusMinus=N&Rank=N' + \\"
p174
sI349
S"    '&Season=2014-15&SeasonSegment=&SeasonType=Regular+Season&VsConference=&VsDivision='"
p175
sI350
S''
sI351
S'    #Create Dict based on JSON response'
p176
ssg100
S"(name='markieff morris', player_id='suns')"
p177
sg102
S'find_stats'
p178
sa(dp179
g79
S'/Applications/anaconda/lib/python2.7/site-packages/requests/models.py'
p180
sg81
(dp181
S'self.text'
p182
S'u"The value \'suns \' is not valid for PlayerID.; PlayerID is required"'
p183
sS'json.loads'
p184
S'<function loads>'
p185
sS'global json'
p186
S"<module 'simplejson' from '/Applications/anacond...-macosx-10.5-x86_64.egg/simplejson/__init__.pyc'>"
p187
sS'self'
p188
S'<Response [400]>'
p189
sS'kwargs'
p190
S'{}'
p191
ssg87
I776
sg88
(dp192
I771
S"                    # Wrong UTF codec detected; usually because it's not UTF-8"
p193
sI772
S'                    # but some other 8-bit codec.  This is an RFC violation,'
p194
sI773
S"                    # and the server didn't bother to tell us what codec *was*"
p195
sI774
S'                    # used.'
p196
sI775
S'                    pass'
p197
sI776
S'        return json.loads(self.text, **kwargs)'
p198
sI777
S''
sI778
S'    @property'
p199
sI779
S'    def links(self):'
p200
sI780
S'        """Returns the parsed header links of the response, if any."""'
p201
ssg100
S'(self=<Response [400]>, **kwargs={})'
p202
sg102
S'json'
p203
sa(dp204
g79
S'/Applications/anaconda/lib/python2.7/site-packages/simplejson-3.6.5-py2.7-macosx-10.5-x86_64.egg/simplejson/__init__.py'
p205
sg81
(dp206
S's'
S'u"The value \'suns \' is not valid for PlayerID.; PlayerID is required"'
p207
sS'global _default_decoder'
p208
S'<simplejson.decoder.JSONDecoder object>'
p209
sS'_default_decoder.decode'
p210
S'<bound method JSONDecoder.decode of <simplejson.decoder.JSONDecoder object>>'
p211
ssg87
I505
sg88
(dp212
I500
S'    """'
p213
sI501
S'    if (cls is None and encoding is None and object_hook is None and'
p214
sI502
S'            parse_int is None and parse_float is None and'
p215
sI503
S'            parse_constant is None and object_pairs_hook is None'
p216
sI504
S'            and not use_decimal and not kw):'
p217
sI505
S'        return _default_decoder.decode(s)'
p218
sI506
S'    if cls is None:'
p219
sI507
S'        cls = JSONDecoder'
p220
sI508
S'    if object_hook is not None:'
p221
sI509
S"        kw['object_hook'] = object_hook"
p222
ssg100
S'(s=u"The value \'suns \' is not valid for PlayerID.; PlayerID is required", encoding=None, cls=None, object_hook=None, parse_float=None, parse_int=None, parse_constant=None, object_pairs_hook=None, use_decimal=False, **kw={})'
p223
sg102
S'loads'
p224
sa(dp225
g79
S'/Applications/anaconda/lib/python2.7/site-packages/simplejson-3.6.5-py2.7-macosx-10.5-x86_64.egg/simplejson/decoder.py'
p226
sg81
(dp227
S'self.raw_decode'
p228
S'<bound method JSONDecoder.raw_decode of <simplejson.decoder.JSONDecoder object>>'
p229
sS'end'
p230
g124
sS'self'
p231
S'<simplejson.decoder.JSONDecoder object>'
p232
sS'obj'
p233
g124
sS's'
S'u"The value \'suns \' is not valid for PlayerID.; PlayerID is required"'
p234
ssg87
I370
sg88
(dp235
I365
S'        instance containing a JSON document)'
p236
sI366
S''
sI367
S'        """'
p237
sI368
S'        if _PY3 and isinstance(s, binary_type):'
p238
sI369
S'            s = s.decode(self.encoding)'
p239
sI370
S'        obj, end = self.raw_decode(s)'
p240
sI371
S'        end = _w(s, end).end()'
p241
sI372
S'        if end != len(s):'
p242
sI373
S'            raise JSONDecodeError("Extra data", s, end, len(s))'
p243
sI374
S'        return obj'
p244
ssg100
S'(self=<simplejson.decoder.JSONDecoder object>, s=u"The value \'suns \' is not valid for PlayerID.; PlayerID is required", _w=<built-in method match of _sre.SRE_Pattern object>, _PY3=False)'
p245
sg102
S'decode'
p246
sa(dp247
g79
S'/Applications/anaconda/lib/python2.7/site-packages/simplejson-3.6.5-py2.7-macosx-10.5-x86_64.egg/simplejson/decoder.py'
p248
sg81
(dp249
S').end'
p250
g124
sS'idx'
p251
S'0'
sS'_w'
p252
S'<built-in method match of _sre.SRE_Pattern object>'
p253
sS'self'
p254
S'<simplejson.decoder.JSONDecoder object>'
p255
sS's'
S'u"The value \'suns \' is not valid for PlayerID.; PlayerID is required"'
p256
sS'self.scan_once'
p257
S'<simplejson._speedups.Scanner object>'
p258
ssg87
I400
sg88
(dp259
I391
S'        if _PY3 and not isinstance(s, text_type):'
p260
sI392
S'            raise TypeError("Input string must be text, not bytes")'
p261
sI393
S'        # strip UTF-8 bom'
p262
sI394
S'        if len(s) > idx:'
p263
sI395
S'            ord0 = ord(s[idx])'
p264
sI396
S'            if ord0 == 0xfeff:'
p265
sI397
S'                idx += 1'
p266
sI398
S"            elif ord0 == 0xef and s[idx:idx + 3] == '\\xef\\xbb\\xbf':"
p267
sI399
S'                idx += 3'
p268
sI400
S'        return self.scan_once(s, idx=_w(s, idx).end())'
p269
ssg100
S'(self=<simplejson.decoder.JSONDecoder object>, s=u"The value \'suns \' is not valid for PlayerID.; PlayerID is required", idx=0, _w=<built-in method match of _sre.SRE_Pattern object>, _PY3=False)'
p270
sg102
S'raw_decode'
p271
sasS'pyver'
p272
S'Python 2.7.8: /Applications/anaconda/bin/python (prefix: /Applications/anaconda)'
p273
sS'session'
p274
g74
(S's\x1a\x00\x00\x00<div><table></table></div>'
tRp275
sS'etype'
p276
S"<class 'simplejson.scanner.JSONDecodeError'>"
p277
sS'date'
p278
S'Mon Feb 23 21:15:16 2015'
p279
sS'response'
p280
g74
(S's\xa21\x00\x00<div><table><tr><td style="font-weight:bold;vertical-align:top;">body</td><td style="vertical-align:top;">:</td><td><div>&lt;cStringIO.StringO object at 0x110550ae8&gt;</div></td></tr><tr><td style="font-weight:bold;vertical-align:top;">cookies</td><td style="vertical-align:top;">:</td><td><div><table><tr><td style="font-weight:bold;vertical-align:top;">session_id_ballislife</td><td style="vertical-align:top;">:</td><td><div>127.0.0.1-72ada0ba-328f-4967-9493-6aa3b2bab168<table><tr><td style="font-weight:bold;vertical-align:top;">comment</td><td style="vertical-align:top;">:</td><td><div></div></td></tr><tr><td style="font-weight:bold;vertical-align:top;">domain</td><td style="vertical-align:top;">:</td><td><div></div></td></tr><tr><td style="font-weight:bold;vertical-align:top;">expires</td><td style="vertical-align:top;">:</td><td><div></div></td></tr><tr><td style="font-weight:bold;vertical-align:top;">httponly</td><td style="vertical-align:top;">:</td><td><div></div></td></tr><tr><td style="font-weight:bold;vertical-align:top;">max-age</td><td style="vertical-align:top;">:</td><td><div></div></td></tr><tr><td style="font-weight:bold;vertical-align:top;">path</td><td style="vertical-align:top;">:</td><td><div>/</div></td></tr><tr><td style="font-weight:bold;vertical-align:top;">secure</td><td style="vertical-align:top;">:</td><td><div></div></td></tr><tr><td style="font-weight:bold;vertical-align:top;">version</td><td style="vertical-align:top;">:</td><td><div></div></td></tr></table></div></td></tr></table></div></td></tr><tr><td style="font-weight:bold;vertical-align:top;">delimiters</td><td style="vertical-align:top;">:</td><td><div><table><tr><td><div>{{</div></td></tr><tr><td><div>}}</div></td></tr></table></div></td></tr><tr><td style="font-weight:bold;vertical-align:top;">files</td><td style="vertical-align:top;">:</td><td><div><table></table></div></td></tr><tr><td style="font-weight:bold;vertical-align:top;">flash</td><td style="vertical-align:top;">:</td><td><div></div></td></tr><tr><td style="font-weight:bold;vertical-align:top;">form_label_separator</td><td style="vertical-align:top;">:</td><td><div>: </div></td></tr><tr><td style="font-weight:bold;vertical-align:top;">formstyle</td><td style="vertical-align:top;">:</td><td><div>table3cols</div></td></tr><tr><td style="font-weight:bold;vertical-align:top;">generic_patterns</td><td style="vertical-align:top;">:</td><td><div><table><tr><td><div>*</div></td></tr></table></div></td></tr><tr><td style="font-weight:bold;vertical-align:top;">google_analytics_id</td><td style="vertical-align:top;">:</td><td><div>None</div></td></tr><tr><td style="font-weight:bold;vertical-align:top;">headers</td><td style="vertical-align:top;">:</td><td><div><table><tr><td style="font-weight:bold;vertical-align:top;">X-Powered-By</td><td style="vertical-align:top;">:</td><td><div>web2py</div></td></tr></table></div></td></tr><tr><td style="font-weight:bold;vertical-align:top;">logo</td><td style="vertical-align:top;">:</td><td><div><a class="brand" href="http://www.web2py.com/"><b>web<span>2</span>py</b>&trade;&nbsp;</a></div></td></tr><tr><td style="font-weight:bold;vertical-align:top;">menu</td><td style="vertical-align:top;">:</td><td><div><table><tr><td><div><table><tr><td><div>Home</div></td></tr><tr><td><div>False</div></td></tr><tr><td><div>/ballislife/default/index</div></td></tr><tr><td><div><table></table></div></td></tr></table></div></td></tr><tr><td><div><table><tr><td><div><span class="highlighted">web2py</span></div></td></tr><tr><td><div>False</div></td></tr><tr><td><div>http://web2py.com</div></td></tr><tr><td><div><table><tr><td><div><table><tr><td><div>My Sites</div></td></tr><tr><td><div>False</div></td></tr><tr><td><div>/admin/default/site</div></td></tr></table></div></td></tr><tr><td><div><table><tr><td><div>This App</div></td></tr><tr><td><div>False</div></td></tr><tr><td><div>/admin/default/design/ballislife</div></td></tr><tr><td><div>[(&lt;lazyT &#x27;Controller&#x27;&gt;, False, &#x27;/admin/default/edit/ballislife/controllers/default.py&#x27;), (&lt;lazyT &#x27;View&#x27;&gt;, False, &#x27;/admin/default/edit/ballislife/views/default/stats.html&#x27;), (&lt;lazyT &#x27;Layout&#x27;&gt;, False, &#x27;/admin/default/edit/ballislife/views/layout.html&#x27;), (&lt;lazyT &#x27;Stylesheet&#x27;&gt;, False, &#x27;/admin/default/edit/ballislife/static/css/web2py.css&#x27;), (&lt;lazyT &#x27;DB Model&#x27;&gt;, False, &#x27;/admin/default/edit/ballislife/models/db.py&#x27;), (&lt;lazyT &#x27;Menu Model&#x27;&gt;, False, &#x27;/admin/default/edit/ballislife/models/menu.py&#x27;), (&lt;lazyT &#x27;Database&#x27;&gt;, False, &#x27;/ballislife/appadmin/index&#x27;), (&lt;lazyT &#x27;Errors&#x27;&gt;, False, &#x27;/admin/default/errors/ballislife&#x27;), (&lt;lazyT &#x27;About&#x27;&gt;, False, &#x27;/admin/default/about/ballislife&#x27;)]</div></td></tr></table></div></td></tr><tr><td><div><table><tr><td><div>web2py.com</div></td></tr><tr><td><div>False</div></td></tr><tr><td><div>http://www.web2py.com</div></td></tr><tr><td><div>[(&lt;lazyT &#x27;Download&#x27;&gt;, False, &#x27;http://www.web2py.com/examples/default/download&#x27;), (&lt;lazyT &#x27;Support&#x27;&gt;, False, &#x27;http://www.web2py.com/examples/default/support&#x27;), (&lt;lazyT &#x27;Demo&#x27;&gt;, False, &#x27;http://web2py.com/demo_admin&#x27;), (&lt;lazyT &#x27;Quick Examples&#x27;&gt;, False, &#x27;http://web2py.com/examples/default/examples&#x27;), (&lt;lazyT &#x27;FAQ&#x27;&gt;, False, &#x27;http://web2py.com/AlterEgo&#x27;), (&lt;lazyT &#x27;Videos&#x27;&gt;, False, &#x27;http://www.web2py.com/examples/default/videos/&#x27;), (&lt;lazyT &#x27;Free Applications&#x27;&gt;, False, &#x27;http://web2py.com/appliances&#x27;), (&lt;lazyT &#x27;Plugins&#x27;&gt;, False, &#x27;http://web2py.com/plugins&#x27;), (&lt;lazyT &#x27;Layouts&#x27;&gt;, False, &#x27;http://web2py.com/layouts&#x27;), (&lt;lazyT &#x27;Recipes&#x27;&gt;, False, &#x27;http://web2pyslices.com/&#x27;), (&lt;lazyT &#x27;Semantic&#x27;&gt;, False, &#x27;http://web2py.com/semantic&#x27;)]</div></td></tr></table></div></td></tr><tr><td><div><table><tr><td><div>Documentation</div></td></tr><tr><td><div>False</div></td></tr><tr><td><div>http://www.web2py.com/book</div></td></tr><tr><td><div>[(&lt;lazyT &#x27;Preface&#x27;&gt;, False, &#x27;http://www.web2py.com/book/default/chapter/00&#x27;), (&lt;lazyT &#x27;Introduction&#x27;&gt;, False, &#x27;http://www.web2py.com/book/default/chapter/01&#x27;), (&lt;lazyT &#x27;Python&#x27;&gt;, False, &#x27;http://www.web2py.com/book/default/chapter/02&#x27;), (&lt;lazyT &#x27;Overview&#x27;&gt;, False, &#x27;http://www.web2py.com/book/default/chapter/03&#x27;), (&lt;lazyT &#x27;The Core&#x27;&gt;, False, &#x27;http://www.web2py.com/book/default/chapter/04&#x27;), (&lt;lazyT &#x27;The Views&#x27;&gt;, False, &#x27;http://www.web2py.com/book/default/chapter/05&#x27;), (&lt;lazyT &#x27;Database&#x27;&gt;, False, &#x27;http://www.web2py.com/book/default/chapter/06&#x27;), (&lt;lazyT &#x27;Forms and Validators&#x27;&gt;, False, &#x27;http://www.web2py.com/book/default/chapter/07&#x27;), (&lt;lazyT &#x27;Email and SMS&#x27;&gt;, False, &#x27;http://www.web2py.com/book/default/chapter/08&#x27;), (&lt;lazyT &#x27;Access Control&#x27;&gt;, False, &#x27;http://www.web2py.com/book/default/chapter/09&#x27;), (&lt;lazyT &#x27;Services&#x27;&gt;, False, &#x27;http://www.web2py.com/book/default/chapter/10&#x27;), (&lt;lazyT &#x27;Ajax Recipes&#x27;&gt;, False, &#x27;http://www.web2py.com/book/default/chapter/11&#x27;), (&lt;lazyT &#x27;Components and Plugins&#x27;&gt;, False, &#x27;http://www.web2py.com/book/default/chapter/12&#x27;), (&lt;lazyT &#x27;Deployment Recipes&#x27;&gt;, False, &#x27;http://www.web2py.com/book/default/chapter/13&#x27;), (&lt;lazyT &#x27;Other Recipes&#x27;&gt;, False, &#x27;http://www.web2py.com/book/default/chapter/14&#x27;), (&lt;lazyT &#x27;Buy this book&#x27;&gt;, False, &#x27;http://stores.lulu.com/web2py&#x27;)]</div></td></tr></table></div></td></tr><tr><td><div><table><tr><td><div>Community</div></td></tr><tr><td><div>False</div></td></tr><tr><td><div>None</div></td></tr><tr><td><div>[(&lt;lazyT &#x27;Groups&#x27;&gt;, False, &#x27;http://www.web2py.com/examples/default/usergroups&#x27;), (&lt;lazyT &#x27;Twitter&#x27;&gt;, False, &#x27;http://twitter.com/web2py&#x27;), (&lt;lazyT &#x27;Live Chat&#x27;&gt;, False, &#x27;http://webchat.freenode.net/?channels=web2py&#x27;)]</div></td></tr></table></div></td></tr><tr><td><div><table><tr><td><div>Plugins</div></td></tr><tr><td><div>False</div></td></tr><tr><td><div>None</div></td></tr><tr><td><div>[(&#x27;plugin_wiki&#x27;, False, &#x27;http://web2py.com/examples/default/download&#x27;), (&lt;lazyT &#x27;Other Plugins&#x27;&gt;, False, &#x27;http://web2py.com/plugins&#x27;), (&lt;lazyT &#x27;Layout Plugins&#x27;&gt;, False, &#x27;http://web2py.com/layouts&#x27;)]</div></td></tr></table></div></td></tr></table></div></td></tr></table></div></td></tr></table></div></td></tr><tr><td style="font-weight:bold;vertical-align:top;">meta</td><td style="vertical-align:top;">:</td><td><div><table><tr><td style="font-weight:bold;vertical-align:top;">author</td><td style="vertical-align:top;">:</td><td><div>Your Name &lt;you@example.com&gt;</div></td></tr><tr><td style="font-weight:bold;vertical-align:top;">generator</td><td style="vertical-align:top;">:</td><td><div>Web2py Web Framework</div></td></tr><tr><td style="font-weight:bold;vertical-align:top;">keywords</td><td style="vertical-align:top;">:</td><td><div>web2py, python, framework</div></td></tr></table></div></td></tr><tr><td style="font-weight:bold;vertical-align:top;">models_to_run</td><td style="vertical-align:top;">:</td><td><div><table><tr><td><div>^\\w+\\.py$</div></td></tr><tr><td><div>^default/\\w+\\.py$</div></td></tr><tr><td><div>^default/stats/\\w+\\.py$</div></td></tr></table></div></td></tr><tr><td style="font-weight:bold;vertical-align:top;">postprocessing</td><td style="vertical-align:top;">:</td><td><div><table></table></div></td></tr><tr><td style="font-weight:bold;vertical-align:top;">session_client</td><td style="vertical-align:top;">:</td><td><div>127.0.0.1</div></td></tr><tr><td style="font-weight:bold;vertical-align:top;">session_cookie_compression_level</td><td style="vertical-align:top;">:</td><td><div>None</div></td></tr><tr><td style="font-weight:bold;vertical-align:top;">session_cookie_expires</td><td style="vertical-align:top;">:</td><td><div>None</div></td></tr><tr><td style="font-weight:bold;vertical-align:top;">session_cookie_key</td><td style="vertical-align:top;">:</td><td><div>None</div></td></tr><tr><td style="font-weight:bold;vertical-align:top;">session_data_name</td><td style="vertical-align:top;">:</td><td><div>session_data_ballislife</div></td></tr><tr><td style="font-weight:bold;vertical-align:top;">session_file</td><td style="vertical-align:top;">:</td><td><div>None</div></td></tr><tr><td style="font-weight:bold;vertical-align:top;">session_filename</td><td style="vertical-align:top;">:</td><td><div>/Users/AlyanShafique/Documents/web2py/web2py/applications/ballislife/sessions/127.0.0.1-72ada0ba-328f-4967-9493-6aa3b2bab168</div></td></tr><tr><td style="font-weight:bold;vertical-align:top;">session_hash</td><td style="vertical-align:top;">:</td><td><div>c0762cbf4baf7f9af97c051e7fcb8083</div></td></tr><tr><td style="font-weight:bold;vertical-align:top;">session_id</td><td style="vertical-align:top;">:</td><td><div>127.0.0.1-72ada0ba-328f-4967-9493-6aa3b2bab168</div></td></tr><tr><td style="font-weight:bold;vertical-align:top;">session_id_name</td><td style="vertical-align:top;">:</td><td><div>session_id_ballislife</div></td></tr><tr><td style="font-weight:bold;vertical-align:top;">session_masterapp</td><td style="vertical-align:top;">:</td><td><div>ballislife</div></td></tr><tr><td style="font-weight:bold;vertical-align:top;">session_new</td><td style="vertical-align:top;">:</td><td><div>True</div></td></tr><tr><td style="font-weight:bold;vertical-align:top;">session_storage_type</td><td style="vertical-align:top;">:</td><td><div>file</div></td></tr><tr><td style="font-weight:bold;vertical-align:top;">status</td><td style="vertical-align:top;">:</td><td><div>200</div></td></tr><tr><td style="font-weight:bold;vertical-align:top;">subtitle</td><td style="vertical-align:top;">:</td><td><div></div></td></tr><tr><td style="font-weight:bold;vertical-align:top;">title</td><td style="vertical-align:top;">:</td><td><div>Ballislife</div></td></tr><tr><td style="font-weight:bold;vertical-align:top;">view</td><td style="vertical-align:top;">:</td><td><div>default/stats.html</div></td></tr></table></div>'
tRp281
sS'locals'
p282
(dp283
S'idx'
p284
S'0'
sS'_w'
p285
S'<built-in method match of _sre.SRE_Pattern object>'
p286
sS'self'
p287
S'<simplejson.decoder.JSONDecoder object>'
p288
sS'_PY3'
p289
S'False'
p290
sS's'
S'u"The value \'suns \' is not valid for PlayerID.; PlayerID is required"'
p291
sS'ord0'
p292
S'84'
p293
sssS'traceback'
p294
S'Traceback (most recent call last):\n  File "/Users/AlyanShafique/Documents/web2py/web2py/gluon/restricted.py", line 226, in restricted\n    exec ccode in environment\n  File "/Users/AlyanShafique/Documents/web2py/web2py/applications/ballislife/controllers/default.py", line 512, in <module>\n  File "/Users/AlyanShafique/Documents/web2py/web2py/gluon/globals.py", line 393, in <lambda>\n    self._caller = lambda f: f()\n  File "/Users/AlyanShafique/Documents/web2py/web2py/applications/ballislife/controllers/default.py", line 441, in stats\n    find_stats(y, x)\n  File "/Users/AlyanShafique/Documents/web2py/web2py/applications/ballislife/controllers/default.py", line 353, in find_stats\n    shots = response.json()[\'resultSets\'][0][\'rowSet\']\n  File "/Applications/anaconda/lib/python2.7/site-packages/requests/models.py", line 776, in json\n    return json.loads(self.text, **kwargs)\n  File "/Applications/anaconda/lib/python2.7/site-packages/simplejson-3.6.5-py2.7-macosx-10.5-x86_64.egg/simplejson/__init__.py", line 505, in loads\n    return _default_decoder.decode(s)\n  File "/Applications/anaconda/lib/python2.7/site-packages/simplejson-3.6.5-py2.7-macosx-10.5-x86_64.egg/simplejson/decoder.py", line 370, in decode\n    obj, end = self.raw_decode(s)\n  File "/Applications/anaconda/lib/python2.7/site-packages/simplejson-3.6.5-py2.7-macosx-10.5-x86_64.egg/simplejson/decoder.py", line 400, in raw_decode\n    return self.scan_once(s, idx=_w(s, idx).end())\nJSONDecodeError: Expecting value: line 1 column 1 (char 0)\n'
p295
s.