(dp1
S'output'
p2
S"<type 'exceptions.KeyError'> 0"
p3
sS'layer'
p4
S'/Users/AlyanShafique/Documents/web2py/web2py/applications/ballislife/controllers/default.py'
p5
sS'code'
p6
S'# -*- coding: utf-8 -*-\n# this file is released under public domain and you can use without limitations\n\n#########################################################################\n## This is a sample controller\n## - index is the default action of any application\n## - user is required for authentication and authorization\n## - download is for downloading files uploaded in the db (does streaming)\n## - api is an example of Hypermedia API support and access control\n#########################################################################\nimport requests\nimport json as simplejson\nimport pandas as pd\nfrom players import teams\nimport urllib2\nimport re\nfrom lxml import etree\nimport xml.etree.ElementTree as ElementTree\n"""\n\nRefer: https://docs.python.org/2/library/json.html\n\nfilename = open(\'../Models/team_players.json\', \'r\')\n\nread_file = filename.read()\n\ny=json.loads(read_file)\n"""\npd.set_option(\'display.width\', 200)\npd.set_option(\'display.max_colwidth\', -1)\nplayers = []\nplayers_info = []\nlive_games = []\nplayer_stats = {\'gp\':None,\'w\':None,\'l\':None,\'win_pct\':None,\'min\':None,\'fgm\':None,\'fga\':None,\'fg_pct\':None,\n                \'fg3m\':None,\'fg3a\':None,\'fg3_pct\':None,\'ftm\':None,\'fta\':None,\'ft_pct\':None,\'oreb\':None,\'dreb\':None,\n                \'reb\':None,\'ast\':None,\'tov\':None,\'stl\':None,\'blk\':None,\'pf\':None,\'pts\':None,\'plus_minus\':None}\nplayer_common_info = {\'first_name\':None,\'last_name\':None,\'jersey\':None,\'position\':None,\'team\':None,\'experience\':None,\n                      \'school\':None,\'height\':None,\'weight\':None,\'birthdate\':None}\nplay_by_play_info = {\'quarter\':None,\'time\':None,\'home\':None,\'away\':None}\n#player_stats = {\'name\':None,\'avg_dribbles\':None,\'avg_touch_time\':None,\'avg_shot_distance\':None,\'avg_defender_distance\':None}\n\ndef index():\n    """\n    example action using the internationalization operator T and flash\n    rendered by views/default/index.html or views/generic.html\n\n    if you need a simple wiki simply replace the two lines below with:\n    return auth.wiki()\n    """\n    test = \'My Thumbnail\'\n    response.flash = T("Welcome to web2py!")\n    return dict(message=T(\'Hello World\'))\n\n\ndef get_live_scores():\n    try: \n        if (urllib2.urlopen(\'http://data.nba.com/data/5s/xml/nbacom/2014/scores/20150301/GSWBOS/pbp_1.xml\').getcode() == 200):\n            url = \'http://data.nba.com/data/5s/xml/nbacom/2014/scores/20150301/GSWBOS/pbp_1.xml\'\n            content = urllib2.urlopen(url).read()   \n            quarter1 = etree.fromstring(content)\n            for event in quarter1.xpath("//event"):\n                s = event.text\n                val = s.split(\'(\', 1)[1].split(\')\')[0]\n                live_games.append({\'QUARTER\': \'1\', \'TIME\': val, \'EVENT\': s})\n    except: \n        print \'DNE\'\n    try: \n        if (urllib2.urlopen(\'http://data.nba.com/data/5s/xml/nbacom/2014/scores/20150301/GSWBOS/pbp_2.xml\').getcode() == 200):\n            url = \'http://data.nba.com/data/5s/xml/nbacom/2014/scores/20150301/GSWBOS/pbp_2.xml\'\n            content = urllib2.urlopen(url).read()   \n            quarter2 = etree.fromstring(content)\n            for event in quarter2.xpath("//event"):\n                s = event.text\n                val = s.split(\'(\', 1)[1].split(\')\')[0]\n                live_games.append({\'QUARTER\': \'2\', \'TIME\': val, \'EVENT\': event.text})\n    except: \n        print \'DNE\'\n    try: \n        if (urllib2.urlopen(\'http://data.nba.com/data/5s/xml/nbacom/2014/scores/20150301/GSWBOS/pbp_3.xml\').getcode() == 200):\n            url = \'http://data.nba.com/data/5s/xml/nbacom/2014/scores/20150301/GSWBOS/pbp_3.xml\'\n            content = urllib2.urlopen(url).read()   \n            quarter3 = etree.fromstring(content)\n            for event in quarter3.xpath("//event"):\n                s = event.text\n                val = s.split(\'(\', 1)[1].split(\')\')[0]\n                live_games.append({\'QUARTER\': \'3\', \'TIME\': val, \'EVENT\': event.text})\n    except: \n        print \'DNE\'\n    try: \n        if (urllib2.urlopen(\'http://data.nba.com/data/5s/xml/nbacom/2014/scores/20150301/GSWBOS/pbp_4.xml\').getcode() == 200):\n            url = \'http://data.nba.com/data/5s/xml/nbacom/2014/scores/20150301/GSWBOS/pbp_4.xml\'\n            content = urllib2.urlopen(url).read()   \n            quarter4 = etree.fromstring(content)\n            for event in quarter4.xpath("//event"):\n                s = event.text\n                val = s.split(\'(\', 1)[1].split(\')\')[0]\n                live_games.append({\'QUARTER\': \'4\', \'TIME\': val, \'EVENT\': event.text})\n    except: \n        print \'DNE\'\n    try: \n        if (urllib2.urlopen(\'http://data.nba.com/data/5s/xml/nbacom/2014/scores/20150301/GSWBOS/pbp_5.xml\').getcode() == 200):\n            url = \'http://data.nba.com/data/5s/xml/nbacom/2014/scores/20150301/GSWBOS/pbp_5.xml\'\n            content = urllib2.urlopen(url).read()   \n            quarter4 = etree.fromstring(content)\n            for event in quarter4.xpath("//event"):\n                s = event.text\n                val = s.split(\'(\', 1)[1].split(\')\')[0]\n                live_games.append({\'QUARTER\': \'OT\', \'TIME\': val, \'EVENT\': event.text})\n    except: \n        print \'DNE\'\n    try: \n        if (urllib2.urlopen(\'http://data.nba.com/data/5s/xml/nbacom/2014/scores/20150301/GSWBOS/pbp_6.xml\').getcode() == 200):\n            url = \'http://data.nba.com/data/5s/xml/nbacom/2014/scores/20150301/GSWBOS/pbp_6.xml\'\n            content = urllib2.urlopen(url).read()   \n            quarter4 = etree.fromstring(content)\n            for event in quarter4.xpath("//event"):\n                s = event.text\n                val = s.split(\'(\', 1)[1].split(\')\')[0]\n                live_games.append({\'QUARTER\': \'2OT\', \'TIME\': val, \'EVENT\': event.text})\n    except: \n        print \'DNE\'\n    try: \n        if (urllib2.urlopen(\'http://data.nba.com/data/5s/xml/nbacom/2014/scores/20150301/GSWBOS/pbp_7.xml\').getcode() == 200):\n            url = \'http://data.nba.com/data/5s/xml/nbacom/2014/scores/20150301/GSWBOS/pbp_7.xml\'\n            content = urllib2.urlopen(url).read()   \n            quarter4 = etree.fromstring(content)\n            for event in quarter4.xpath("//event"):\n                s = event.text\n                val = s.split(\'(\', 1)[1].split(\')\')[0]\n                live_games.append({\'QUARTER\': \'3OT\', \'TIME\': val, \'EVENT\': event.text})\n    except: \n        print \'DNE\'\n    """play_by_play = response.xml()[\'resultSets\'][0][\'rowSet\']\n    data = simplejson.loads(response.text)\n    headers = data[\'resultSets\'][0][\'headers\']\n    game_data = data[\'resultSets\'][0][\'rowSet\']\n    play_by_play_df = pd.DataFrame(game_data,columns=headers)\n    quarter = play_by_play_df[\'PERIOD\'].to_string()\n    time = play_by_play_df[\'PCTIMESTRING\'].to_string()\n    home = play_by_play_df[\'HOMEDESCRIPTION\'].to_string()\n    away = play_by_play_df[\'VISITORDESCRIPTION\'].to_string()\n    play_by_play_info[\'quarter\'] = quarter\n    play_by_play_info[\'time\'] = time\n    play_by_play_info[\'home\'] = home\n    play_by_play_info[\'away\'] = away\n    live_games.append(play_by_play_info.copy())"""\n    \n\n\ndef scores():\n    get_live_scores()\n    live_games_cols = [\'QUARTER\', \'TIME\', \'EVENT\']\n    live_games_df = pd.DataFrame(live_games,columns = live_games_cols)\n    live_games_df = live_games_df.to_html(classes="table table-condensed", index=False)\n    return dict(live_games_df=live_games_df)\n\n\ndef player_info(player_id):\n    url = \'http://stats.nba.com/stats/commonplayerinfo?LeagueID=00&\' + \\\n    \'PlayerID=\'+player_id+\'&SeasonType=Regular+Season\'\n    response = requests.get(url)\n    shots = response.json()[\'resultSets\'][0][\'rowSet\']\n    data = simplejson.loads(response.text)\n    headers = data[\'resultSets\'][0][\'headers\']\n    shot_data = data[\'resultSets\'][0][\'rowSet\']\n    player_info_df = pd.DataFrame(shot_data,columns=headers)\n    first_name = player_info_df[\'FIRST_NAME\'].to_string()\n    last_name = player_info_df[\'LAST_NAME\'].to_string()\n    jersey = player_info_df[\'JERSEY\'].mean(axis=1)\n    position = player_info_df[\'POSITION\'].to_string()\n    team = player_info_df[\'TEAM_NAME\'].to_string()\n    experience = player_info_df[\'SEASON_EXP\'].mean(axis=1)\n    school = player_info_df[\'SCHOOL\'].to_string()\n    height = player_info_df[\'HEIGHT\'].to_string()\n    weight= player_info_df[\'WEIGHT\'].mean(axis=1)\n    birthdate = player_info_df[\'BIRTHDATE\'].to_string()\n    player_common_info[\'first_name\'] = first_name\n    player_common_info[\'last_name\'] = last_name\n    player_common_info[\'jersey\'] = jersey\n    player_common_info[\'position\'] = position\n    player_common_info[\'team\'] = team\n    player_common_info[\'experience\'] = experience\n    player_common_info[\'school\'] = school\n    player_common_info[\'height\'] = height\n    player_common_info[\'weight\'] = weight\n    player_common_info[\'birthdate\'] = birthdate\n    players_info.append(player_common_info.copy())\n    print player_common_info\n\n"""def find_current_stats(player_id):\n    url = \'http://stats.nba.com/stats/playerdashptshotlog?\'+ \\\n    \'DateFrom=&DateTo=&GameSegment=&LastNGames=0&LeagueID=00&\' + \\\n    \'Location=&Month=0&OpponentTeamID=0&Outcome=&Period=0&\' + \\\n    \'PlayerID=\'+player_id+\'&Season=2014-15&SeasonSegment=&\' + \\\n    \'SeasonType=Regular+Season&TeamID=0&VsConference=&VsDivision=\'\n\n    url = \'http://stats.nba.com/stats/playerdashboardbygeneralsplits?\' + \\\n    \'DateFrom=&DateTo=&GameSegment=&LastNGames=0&LeagueID=00&Location=&\' + \\\n    \'MeasureType=Base&Month=0&OpponentTeamID=0&Outcome=&PaceAdjust=N&\' + \\\n    \'PerMode=PerGame&Period=0&PlayerID=\'+player_id+\'+&PlusMinus=N&Rank=N\' + \\\n    \'&Season=2014-15&SeasonSegment=&SeasonType=Regular+Season&VsConference=&VsDivision=\'\n    #Create Dict based on JSON response\n    response = requests.get(url)\n    #print response.elapsed\n    shots = response.json()[\'resultSets\'][0][\'rowSet\']\n    data = simplejson.loads(response.text)\n    #print (\'================================\')\n    #print data\n    #Create df from data and find averages\n    headers = data[\'resultSets\'][0][\'headers\']\n    shot_data = data[\'resultSets\'][0][\'rowSet\']\n    reg_stats_df = pd.DataFrame(shot_data,columns=headers)\n    #print (\'+++++++++++++++++++++++++++++++++\')\n    #print df\n    #avg_def = df[\'CLOSE_DEF_DIST\'].mean(axis=1)\n    #avg_dribbles = df[\'DRIBBLES\'].mean(axis=1)\n    #avg_shot_distance = df[\'SHOT_DIST\'].mean(axis=1)\n    #avg_touch_time = df[\'TOUCH_TIME\'].mean(axis=1)\n    \n    gp = reg_stats_df[\'GP\'].mean(axis=1)\n    w = reg_stats_df[\'W\'].mean(axis=1)\n    l = reg_stats_df[\'L\'].mean(axis=1)\n    win_pct = reg_stats_df[\'W_PCT\'].mean(axis=1)\n    min = reg_stats_df[\'MIN\'].mean(axis=1)\n    fgm = reg_stats_df[\'FGM\'].mean(axis=1)\n    fga = reg_stats_df[\'FGA\'].mean(axis=1)\n    fg_pct = reg_stats_df[\'FG_PCT\'].mean(axis=1)\n    fg3m = reg_stats_df[\'FG3M\'].mean(axis=1)\n    fg3a = reg_stats_df[\'FG3A\'].mean(axis=1)\n    fg3_pct = reg_stats_df[\'FG3_PCT\'].mean(axis=1)\n    ftm = reg_stats_df[\'FTM\'].mean(axis=1)\n    fta = reg_stats_df[\'FTA\'].mean(axis=1)\n    ft_pct = reg_stats_df[\'FT_PCT\'].mean(axis=1)\n    oreb = reg_stats_df[\'OREB\'].mean(axis=1)\n    dreb = reg_stats_df[\'DREB\'].mean(axis=1)\n    reb = reg_stats_df[\'REB\'].mean(axis=1)\n    ast = reg_stats_df[\'AST\'].mean(axis=1)\n    tov = reg_stats_df[\'TOV\'].mean(axis=1)\n    stl = reg_stats_df[\'STL\'].mean(axis=1)\n    blk = reg_stats_df[\'BLK\'].mean(axis=1)\n    pf = reg_stats_df[\'PF\'].mean(axis=1)\n    pts = reg_stats_df[\'PTS\'].mean(axis=1)\n    plus_minus = reg_stats_df[\'PLUS_MINUS\'].mean(axis=1)\n    #add averages to dictionary\n    #player_stats[\'name\'] = name\n    #player_stats[\'avg_defender_distance\']=avg_def\n    #player_stats[\'avg_shot_distance\'] = avg_shot_distance\n    #player_stats[\'avg_touch_time\'] = avg_touch_time\n    #player_stats[\'avg_dribbles\'] = avg_dribbles\n    #players.append(player_stats.copy())\n    \n    player_stats[\'gp\'] = gp\n    player_stats[\'w\']= w\n    player_stats[\'l\'] = l\n    player_stats[\'win_pct\'] = win_pct\n    player_stats[\'min\'] = min\n    player_stats[\'fgm\'] = fgm\n    player_stats[\'fga\'] = fga\n    player_stats[\'fg_pct\'] = fg_pct\n    player_stats[\'fg3m\'] = fg3m\n    player_stats[\'fg3a\'] = fg3a\n    player_stats[\'fg3_pct\'] = fg3_pct\n    player_stats[\'ftm\'] = ftm\n    player_stats[\'fta\'] = fta\n    player_stats[\'ft_pct\'] = ft_pct\n    player_stats[\'ftm\'] = ftm\n    player_stats[\'fta\'] = fta\n    player_stats[\'ft_pct\'] = ft_pct\n    player_stats[\'oreb\'] = oreb\n    player_stats[\'dreb\'] = dreb\n    player_stats[\'reb\'] = reb\n    player_stats[\'ast\'] = ast\n    player_stats[\'tov\'] = tov\n    player_stats[\'stl\'] = stl\n    player_stats[\'blk\'] = blk\n    player_stats[\'pf\'] = pf\n    player_stats[\'pts\'] = pts\n    player_stats[\'+/-\'] = plus_minus\n    players.append(player_stats.copy())"""\n    \ndef find_curent_stats():\n    url = "http://stats.nba.com/league/team/#!/advanced/"\n    headers = {\'User-Agent\': \'Mozilla/5.0 (Macintosh; Intel Mac OS X 10_10_1) AppleWebKit/537.36 (KHTML, like Gecko) Chrome/39.0.2171.99 Safari/537.36\'}\n\n    with requests.Session() as session:\n        session.headers = headers\n        session.get(url, headers=headers)\n\n        params = {\n            \'DateFrom\': \'\',\n            \'DateTo\': \'\',\n            \'GameScope\': \'\',\n            \'GameSegment\': \'\',\n            \'LastNGames\': \'0\',\n            \'LeagueID\': \'00\',\n            \'Location\': \'\',\n            \'MeasureType\': \'Advanced\',\n            \'Month\': \'0\',\n            \'OpponentTeamID\': \'0\',\n            \'Outcome\': \'\',\n            \'PaceAdjust\': \'N\',\n            \'PerMode\': \'Totals\',\n            \'Period\': \'0\',\n            \'PlayerExperience\': \'\',\n            \'PlayerPosition\': \'\',\n            \'PlusMinus\': \'N\',\n            \'Rank\': \'N\',\n            \'Season\': \'2014-15\',\n            \'SeasonSegment\': \'\',\n            \'SeasonType\': \'Regular Season\',\n            \'StarterBench\': \'\',\n            \'VsConference\': \'\',\n            \'VsDivision\': \'\'\n        }\n    \n        response = session.get(\'http://stats.nba.com/stats/leaguedashteamstats\', params=params)\n        results = response.json()\n        headers = results[\'resultSets\'][0][\'headers\']\n        rows = results[\'resultSets\'][0][\'rowSet\']\n        for row in range(0,10):\n            print results[row]\n        \n        \n\ndef view():\n    """"p = db.player(request.args(0))\n    find_current_stats(p.player_id)\n    player_info(p.player_id)\n    player_info_cols = [\'first_name\',\'last_name\',\'jersey\',\'position\',\'team\',\'experience\',\n                      \'school\',\'height\',\'weight\',\'birthdate\']\n    reg_stats_cols = [\'gp\', \'w\', \'l\', \'win_pct\', \'min\', \'fgm\', \'fga\', \'fg_pct\', \'fg3m\', \'fg3a\', \'fg3_pct\',\n            \'ftm\', \'fta\',\'ft_pct\', \'pf\', \'oreb\', \'dreb\', \'reb\', \'ast\', \'tov\', \'stl\', \'blk\', \'pts\', \'+/-\']\n    player_info_df = pd.DataFrame(players_info, columns = player_info_cols)\n    player_info_df = player_info_df.to_html(classes="table table-condensed",index=False)\n    #print player_info_df\n    reg_stats_df = pd.DataFrame(players,columns = reg_stats_cols)\n    reg_stats_df = reg_stats_df.to_html(classes="table table-condensed", index=False)"""\n    #return dict(player_info_df=player_info_df,reg_stats_df=reg_stats_df)\n    find_curent_stats()\n    return \'hello\'\n\ndef stats():\n    with open (\'applications/ballislife/static/team_players.json\') as f:\n        data=f.read()\n        z=simplejson.dumps(data)\n    q = db.player\n    #NBA Stats API using selected player ID\n    """Will continue inserting into db.player\n    for x in teams:\n        for y,z in teams[x].items():\n            db.player.insert(**{\'name\':y, \'player_id\':z, \'team\':x})"""\n    #print db.executesql(\'DELETE (*) FROM player;\')\n    #print db.executesql(\'SELECT * FROM player;\')\n        #for y in teams[x]:\n            #db.player.insert(**{})\n            #print teams[x][y]\n    def generate_view_button(row):\n        view_page = A(\'View\', _class=\'btn\', _href=URL(\'default\', \'view\', args=[row.id]))\n        return view_page\n    links = [\n        dict(header=\'\', body = generate_view_button),\n        ]\n    form = SQLFORM.grid(q,\n        fields=[db.player.name, db.player.team],csv=False, orderby=db.player.name, details=False, links=links)\n    """find_stats(\'Stephen Curry\',\'201939\')\n    #find_stats(\'James Harden\',\'201935\')\n    #find_stats(\'Klay Thompson\',\'202691\')\n    #find_stats(\'LeBron James\',\'2544\')\n    #cols = [\'name\',\'avg_defender_distance\',\'avg_dribbles\',\'avg_shot_distance\',\'avg_touch_time\']\n    cols = [\'name\', \'gp\', \'w\', \'l\', \'win_pct\', \'min\', \'fgm\', \'fga\', \'fg_pct\', \'fg3m\', \'fg3a\', \'fg3_pct\',\n            \'ftm\', \'fta\',\'ft_pct\', \'pf\', \'oreb\', \'dreb\', \'reb\', \'ast\', \'tov\', \'stl\', \'blk\', \'pts\', \'+/-\']\n    df = pd.DataFrame(players,columns = cols)\n    print (\'=========================\')\n    print df\n    df = df.to_html(classes="table table-condensed")"""\n    return dict(form=form)\n\ndef top_players():\n    #df = pd.read_json(\'http://stats.nba.com/stats/homepagev2?GameScope=Season&LeagueID=00&PlayerOrTeam=Player&PlayerScope=All+Players&Season=2014-15&SeasonType=Regular+Season&StatType=Traditional\')\n    #df[[\'created_at\', \'title\', \'body\', \'comments\']]\n    #print teams[\'warriors\'][0][\'stephen curry\']\n    return dict(message=T(\'Hello World\'))\n\ndef user():\n    """\n    exposes:\n    http://..../[app]/default/user/login\n    http://..../[app]/default/user/logout\n    http://..../[app]/default/user/register\n    http://..../[app]/default/user/profile\n    http://..../[app]/default/user/retrieve_password\n    http://..../[app]/default/user/change_password\n    http://..../[app]/default/user/manage_users (requires membership in\n    use @auth.requires_login()\n        @auth.requires_membership(\'group name\')\n        @auth.requires_permission(\'read\',\'table name\',record_id)\n    to decorate functions that need access control\n    """\n    return dict(form=auth())\n\n\n@cache.action()\ndef download():\n    """\n    allows downloading of uploaded files\n    http://..../[app]/default/download/[filename]\n    """\n    return response.download(request, db)\n\n\ndef call():\n    """\n    exposes services. for example:\n    http://..../[app]/default/call/jsonrpc\n    decorate with @services.jsonrpc the functions to expose\n    supports xml, json, xmlrpc, jsonrpc, amfrpc, rss, csv\n    """\n    return service()\n\n\n@auth.requires_login() \ndef api():\n    """\n    this is example of API with access control\n    WEB2PY provides Hypermedia API (Collection+JSON) Experimental\n    """\n    from gluon.contrib.hypermedia import Collection\n    rules = {\n        \'<tablename>\': {\'GET\':{},\'POST\':{},\'PUT\':{},\'DELETE\':{}},\n        }\n    return Collection(db).process(request,response,rules)\n\nresponse._vars=response._caller(view)\n'
p7
sS'snapshot'
p8
(dp9
S'exception'
p10
(dp11
S'__hash__'
p12
S"<method-wrapper '__hash__' of exceptions.KeyError object>"
p13
sS'__setattr__'
p14
S"<method-wrapper '__setattr__' of exceptions.KeyError object>"
p15
sS'__reduce_ex__'
p16
S'<built-in method __reduce_ex__ of exceptions.KeyError object>'
p17
sS'__getslice__'
p18
S"<method-wrapper '__getslice__' of exceptions.KeyError object>"
p19
sS'__getitem__'
p20
S"<method-wrapper '__getitem__' of exceptions.KeyError object>"
p21
sS'__setstate__'
p22
S'<built-in method __setstate__ of exceptions.KeyError object>'
p23
sS'args'
p24
S'(0,)'
p25
sS'__reduce__'
p26
S'<built-in method __reduce__ of exceptions.KeyError object>'
p27
sS'__str__'
p28
S"<method-wrapper '__str__' of exceptions.KeyError object>"
p29
sS'__format__'
p30
S'<built-in method __format__ of exceptions.KeyError object>'
p31
sS'__getattribute__'
p32
S"<method-wrapper '__getattribute__' of exceptions.KeyError object>"
p33
sS'__class__'
p34
S"<type 'exceptions.KeyError'>"
p35
sS'__unicode__'
p36
S'<built-in method __unicode__ of exceptions.KeyError object>'
p37
sS'__delattr__'
p38
S"<method-wrapper '__delattr__' of exceptions.KeyError object>"
p39
sS'__subclasshook__'
p40
S'<built-in method __subclasshook__ of type object>'
p41
sS'__repr__'
p42
S"<method-wrapper '__repr__' of exceptions.KeyError object>"
p43
sS'__dict__'
p44
S'{}'
p45
sS'__sizeof__'
p46
S'<built-in method __sizeof__ of exceptions.KeyError object>'
p47
sS'__doc__'
p48
S"'Mapping key not found.'"
p49
sS'__init__'
p50
S"<method-wrapper '__init__' of exceptions.KeyError object>"
p51
sS'__new__'
p52
S'<built-in method __new__ of type object>'
p53
ssS'evalue'
p54
S'0'
sS'request'
p55
cgluon.html
XML_unpickle
p56
(S's^\xa7\x00\x00<div><table><tr><td style="font-weight:bold;vertical-align:top;">ajax</td><td style="vertical-align:top;">:</td><td><div>False</div></td></tr><tr><td style="font-weight:bold;vertical-align:top;">application</td><td style="vertical-align:top;">:</td><td><div>ballislife</div></td></tr><tr><td style="font-weight:bold;vertical-align:top;">args</td><td style="vertical-align:top;">:</td><td><div><table><tr><td><div>158</div></td></tr></table></div></td></tr><tr><td style="font-weight:bold;vertical-align:top;">cid</td><td style="vertical-align:top;">:</td><td><div>None</div></td></tr><tr><td style="font-weight:bold;vertical-align:top;">client</td><td style="vertical-align:top;">:</td><td><div>127.0.0.1</div></td></tr><tr><td style="font-weight:bold;vertical-align:top;">controller</td><td style="vertical-align:top;">:</td><td><div>default</div></td></tr><tr><td style="font-weight:bold;vertical-align:top;">cookies</td><td style="vertical-align:top;">:</td><td><div><table><tr><td style="font-weight:bold;vertical-align:top;">session_id_admin</td><td style="vertical-align:top;">:</td><td><div>127.0.0.1-2726a9d8-295b-4036-92c8-056398564f08<table><tr><td style="font-weight:bold;vertical-align:top;">comment</td><td style="vertical-align:top;">:</td><td><div></div></td></tr><tr><td style="font-weight:bold;vertical-align:top;">domain</td><td style="vertical-align:top;">:</td><td><div></div></td></tr><tr><td style="font-weight:bold;vertical-align:top;">expires</td><td style="vertical-align:top;">:</td><td><div></div></td></tr><tr><td style="font-weight:bold;vertical-align:top;">httponly</td><td style="vertical-align:top;">:</td><td><div></div></td></tr><tr><td style="font-weight:bold;vertical-align:top;">max-age</td><td style="vertical-align:top;">:</td><td><div></div></td></tr><tr><td style="font-weight:bold;vertical-align:top;">path</td><td style="vertical-align:top;">:</td><td><div></div></td></tr><tr><td style="font-weight:bold;vertical-align:top;">secure</td><td style="vertical-align:top;">:</td><td><div></div></td></tr><tr><td style="font-weight:bold;vertical-align:top;">version</td><td style="vertical-align:top;">:</td><td><div></div></td></tr></table></div></td></tr><tr><td style="font-weight:bold;vertical-align:top;">session_id_ballislife</td><td style="vertical-align:top;">:</td><td><div>127.0.0.1-4a74681f-3520-4970-add6-efb27186e509<table><tr><td style="font-weight:bold;vertical-align:top;">comment</td><td style="vertical-align:top;">:</td><td><div></div></td></tr><tr><td style="font-weight:bold;vertical-align:top;">domain</td><td style="vertical-align:top;">:</td><td><div></div></td></tr><tr><td style="font-weight:bold;vertical-align:top;">expires</td><td style="vertical-align:top;">:</td><td><div></div></td></tr><tr><td style="font-weight:bold;vertical-align:top;">httponly</td><td style="vertical-align:top;">:</td><td><div></div></td></tr><tr><td style="font-weight:bold;vertical-align:top;">max-age</td><td style="vertical-align:top;">:</td><td><div></div></td></tr><tr><td style="font-weight:bold;vertical-align:top;">path</td><td style="vertical-align:top;">:</td><td><div></div></td></tr><tr><td style="font-weight:bold;vertical-align:top;">secure</td><td style="vertical-align:top;">:</td><td><div></div></td></tr><tr><td style="font-weight:bold;vertical-align:top;">version</td><td style="vertical-align:top;">:</td><td><div></div></td></tr></table></div></td></tr><tr><td style="font-weight:bold;vertical-align:top;">session_id_bboard</td><td style="vertical-align:top;">:</td><td><div>127.0.0.1-6ccfe1c7-fbf1-4298-87b0-6c34729aebaa<table><tr><td style="font-weight:bold;vertical-align:top;">comment</td><td style="vertical-align:top;">:</td><td><div></div></td></tr><tr><td style="font-weight:bold;vertical-align:top;">domain</td><td style="vertical-align:top;">:</td><td><div></div></td></tr><tr><td style="font-weight:bold;vertical-align:top;">expires</td><td style="vertical-align:top;">:</td><td><div></div></td></tr><tr><td style="font-weight:bold;vertical-align:top;">httponly</td><td style="vertical-align:top;">:</td><td><div></div></td></tr><tr><td style="font-weight:bold;vertical-align:top;">max-age</td><td style="vertical-align:top;">:</td><td><div></div></td></tr><tr><td style="font-weight:bold;vertical-align:top;">path</td><td style="vertical-align:top;">:</td><td><div></div></td></tr><tr><td style="font-weight:bold;vertical-align:top;">secure</td><td style="vertical-align:top;">:</td><td><div></div></td></tr><tr><td style="font-weight:bold;vertical-align:top;">version</td><td style="vertical-align:top;">:</td><td><div></div></td></tr></table></div></td></tr><tr><td style="font-weight:bold;vertical-align:top;">session_id_forsale</td><td style="vertical-align:top;">:</td><td><div>127.0.0.1-fc0df072-d1e9-4b88-973f-e70cac96d160<table><tr><td style="font-weight:bold;vertical-align:top;">comment</td><td style="vertical-align:top;">:</td><td><div></div></td></tr><tr><td style="font-weight:bold;vertical-align:top;">domain</td><td style="vertical-align:top;">:</td><td><div></div></td></tr><tr><td style="font-weight:bold;vertical-align:top;">expires</td><td style="vertical-align:top;">:</td><td><div></div></td></tr><tr><td style="font-weight:bold;vertical-align:top;">httponly</td><td style="vertical-align:top;">:</td><td><div></div></td></tr><tr><td style="font-weight:bold;vertical-align:top;">max-age</td><td style="vertical-align:top;">:</td><td><div></div></td></tr><tr><td style="font-weight:bold;vertical-align:top;">path</td><td style="vertical-align:top;">:</td><td><div></div></td></tr><tr><td style="font-weight:bold;vertical-align:top;">secure</td><td style="vertical-align:top;">:</td><td><div></div></td></tr><tr><td style="font-weight:bold;vertical-align:top;">version</td><td style="vertical-align:top;">:</td><td><div></div></td></tr></table></div></td></tr><tr><td style="font-weight:bold;vertical-align:top;">session_id_hw1sub2</td><td style="vertical-align:top;">:</td><td><div>127.0.0.1-aad81459-e3e8-42c2-9d0f-8958df37866d<table><tr><td style="font-weight:bold;vertical-align:top;">comment</td><td style="vertical-align:top;">:</td><td><div></div></td></tr><tr><td style="font-weight:bold;vertical-align:top;">domain</td><td style="vertical-align:top;">:</td><td><div></div></td></tr><tr><td style="font-weight:bold;vertical-align:top;">expires</td><td style="vertical-align:top;">:</td><td><div></div></td></tr><tr><td style="font-weight:bold;vertical-align:top;">httponly</td><td style="vertical-align:top;">:</td><td><div></div></td></tr><tr><td style="font-weight:bold;vertical-align:top;">max-age</td><td style="vertical-align:top;">:</td><td><div></div></td></tr><tr><td style="font-weight:bold;vertical-align:top;">path</td><td style="vertical-align:top;">:</td><td><div></div></td></tr><tr><td style="font-weight:bold;vertical-align:top;">secure</td><td style="vertical-align:top;">:</td><td><div></div></td></tr><tr><td style="font-weight:bold;vertical-align:top;">version</td><td style="vertical-align:top;">:</td><td><div></div></td></tr></table></div></td></tr><tr><td style="font-weight:bold;vertical-align:top;">session_id_hw1sub3</td><td style="vertical-align:top;">:</td><td><div>127.0.0.1-0a072570-21a9-46ea-8a28-ae17c9d741f2<table><tr><td style="font-weight:bold;vertical-align:top;">comment</td><td style="vertical-align:top;">:</td><td><div></div></td></tr><tr><td style="font-weight:bold;vertical-align:top;">domain</td><td style="vertical-align:top;">:</td><td><div></div></td></tr><tr><td style="font-weight:bold;vertical-align:top;">expires</td><td style="vertical-align:top;">:</td><td><div></div></td></tr><tr><td style="font-weight:bold;vertical-align:top;">httponly</td><td style="vertical-align:top;">:</td><td><div></div></td></tr><tr><td style="font-weight:bold;vertical-align:top;">max-age</td><td style="vertical-align:top;">:</td><td><div></div></td></tr><tr><td style="font-weight:bold;vertical-align:top;">path</td><td style="vertical-align:top;">:</td><td><div></div></td></tr><tr><td style="font-weight:bold;vertical-align:top;">secure</td><td style="vertical-align:top;">:</td><td><div></div></td></tr><tr><td style="font-weight:bold;vertical-align:top;">version</td><td style="vertical-align:top;">:</td><td><div></div></td></tr></table></div></td></tr><tr><td style="font-weight:bold;vertical-align:top;">session_id_hw1sub4</td><td style="vertical-align:top;">:</td><td><div>127.0.0.1-3723f225-5536-41db-af1e-5a55868fdc8d<table><tr><td style="font-weight:bold;vertical-align:top;">comment</td><td style="vertical-align:top;">:</td><td><div></div></td></tr><tr><td style="font-weight:bold;vertical-align:top;">domain</td><td style="vertical-align:top;">:</td><td><div></div></td></tr><tr><td style="font-weight:bold;vertical-align:top;">expires</td><td style="vertical-align:top;">:</td><td><div></div></td></tr><tr><td style="font-weight:bold;vertical-align:top;">httponly</td><td style="vertical-align:top;">:</td><td><div></div></td></tr><tr><td style="font-weight:bold;vertical-align:top;">max-age</td><td style="vertical-align:top;">:</td><td><div></div></td></tr><tr><td style="font-weight:bold;vertical-align:top;">path</td><td style="vertical-align:top;">:</td><td><div></div></td></tr><tr><td style="font-weight:bold;vertical-align:top;">secure</td><td style="vertical-align:top;">:</td><td><div></div></td></tr><tr><td style="font-weight:bold;vertical-align:top;">version</td><td style="vertical-align:top;">:</td><td><div></div></td></tr></table></div></td></tr><tr><td style="font-weight:bold;vertical-align:top;">session_id_hw2sub1</td><td style="vertical-align:top;">:</td><td><div>127.0.0.1-f8a9274e-c197-4b84-9029-519fe962bd32<table><tr><td style="font-weight:bold;vertical-align:top;">comment</td><td style="vertical-align:top;">:</td><td><div></div></td></tr><tr><td style="font-weight:bold;vertical-align:top;">domain</td><td style="vertical-align:top;">:</td><td><div></div></td></tr><tr><td style="font-weight:bold;vertical-align:top;">expires</td><td style="vertical-align:top;">:</td><td><div></div></td></tr><tr><td style="font-weight:bold;vertical-align:top;">httponly</td><td style="vertical-align:top;">:</td><td><div></div></td></tr><tr><td style="font-weight:bold;vertical-align:top;">max-age</td><td style="vertical-align:top;">:</td><td><div></div></td></tr><tr><td style="font-weight:bold;vertical-align:top;">path</td><td style="vertical-align:top;">:</td><td><div></div></td></tr><tr><td style="font-weight:bold;vertical-align:top;">secure</td><td style="vertical-align:top;">:</td><td><div></div></td></tr><tr><td style="font-weight:bold;vertical-align:top;">version</td><td style="vertical-align:top;">:</td><td><div></div></td></tr></table></div></td></tr><tr><td style="font-weight:bold;vertical-align:top;">session_id_hw2sub2</td><td style="vertical-align:top;">:</td><td><div>127.0.0.1-24da8c36-8f65-446c-9a9a-00a293c6440c<table><tr><td style="font-weight:bold;vertical-align:top;">comment</td><td style="vertical-align:top;">:</td><td><div></div></td></tr><tr><td style="font-weight:bold;vertical-align:top;">domain</td><td style="vertical-align:top;">:</td><td><div></div></td></tr><tr><td style="font-weight:bold;vertical-align:top;">expires</td><td style="vertical-align:top;">:</td><td><div></div></td></tr><tr><td style="font-weight:bold;vertical-align:top;">httponly</td><td style="vertical-align:top;">:</td><td><div></div></td></tr><tr><td style="font-weight:bold;vertical-align:top;">max-age</td><td style="vertical-align:top;">:</td><td><div></div></td></tr><tr><td style="font-weight:bold;vertical-align:top;">path</td><td style="vertical-align:top;">:</td><td><div></div></td></tr><tr><td style="font-weight:bold;vertical-align:top;">secure</td><td style="vertical-align:top;">:</td><td><div></div></td></tr><tr><td style="font-weight:bold;vertical-align:top;">version</td><td style="vertical-align:top;">:</td><td><div></div></td></tr></table></div></td></tr><tr><td style="font-weight:bold;vertical-align:top;">session_id_hw2sub3</td><td style="vertical-align:top;">:</td><td><div>127.0.0.1-2619de95-10e2-44e0-9b06-6aedb65a544e<table><tr><td style="font-weight:bold;vertical-align:top;">comment</td><td style="vertical-align:top;">:</td><td><div></div></td></tr><tr><td style="font-weight:bold;vertical-align:top;">domain</td><td style="vertical-align:top;">:</td><td><div></div></td></tr><tr><td style="font-weight:bold;vertical-align:top;">expires</td><td style="vertical-align:top;">:</td><td><div></div></td></tr><tr><td style="font-weight:bold;vertical-align:top;">httponly</td><td style="vertical-align:top;">:</td><td><div></div></td></tr><tr><td style="font-weight:bold;vertical-align:top;">max-age</td><td style="vertical-align:top;">:</td><td><div></div></td></tr><tr><td style="font-weight:bold;vertical-align:top;">path</td><td style="vertical-align:top;">:</td><td><div></div></td></tr><tr><td style="font-weight:bold;vertical-align:top;">secure</td><td style="vertical-align:top;">:</td><td><div></div></td></tr><tr><td style="font-weight:bold;vertical-align:top;">version</td><td style="vertical-align:top;">:</td><td><div></div></td></tr></table></div></td></tr><tr><td style="font-weight:bold;vertical-align:top;">session_id_hw2sub4</td><td style="vertical-align:top;">:</td><td><div>127.0.0.1-682929c0-5ab4-40b5-aa37-3a6045be344d<table><tr><td style="font-weight:bold;vertical-align:top;">comment</td><td style="vertical-align:top;">:</td><td><div></div></td></tr><tr><td style="font-weight:bold;vertical-align:top;">domain</td><td style="vertical-align:top;">:</td><td><div></div></td></tr><tr><td style="font-weight:bold;vertical-align:top;">expires</td><td style="vertical-align:top;">:</td><td><div></div></td></tr><tr><td style="font-weight:bold;vertical-align:top;">httponly</td><td style="vertical-align:top;">:</td><td><div></div></td></tr><tr><td style="font-weight:bold;vertical-align:top;">max-age</td><td style="vertical-align:top;">:</td><td><div></div></td></tr><tr><td style="font-weight:bold;vertical-align:top;">path</td><td style="vertical-align:top;">:</td><td><div></div></td></tr><tr><td style="font-weight:bold;vertical-align:top;">secure</td><td style="vertical-align:top;">:</td><td><div></div></td></tr><tr><td style="font-weight:bold;vertical-align:top;">version</td><td style="vertical-align:top;">:</td><td><div></div></td></tr></table></div></td></tr><tr><td style="font-weight:bold;vertical-align:top;">session_id_hw3sub1</td><td style="vertical-align:top;">:</td><td><div>127.0.0.1-fafe9c3b-a7ba-4a6e-a550-fa830b18945b<table><tr><td style="font-weight:bold;vertical-align:top;">comment</td><td style="vertical-align:top;">:</td><td><div></div></td></tr><tr><td style="font-weight:bold;vertical-align:top;">domain</td><td style="vertical-align:top;">:</td><td><div></div></td></tr><tr><td style="font-weight:bold;vertical-align:top;">expires</td><td style="vertical-align:top;">:</td><td><div></div></td></tr><tr><td style="font-weight:bold;vertical-align:top;">httponly</td><td style="vertical-align:top;">:</td><td><div></div></td></tr><tr><td style="font-weight:bold;vertical-align:top;">max-age</td><td style="vertical-align:top;">:</td><td><div></div></td></tr><tr><td style="font-weight:bold;vertical-align:top;">path</td><td style="vertical-align:top;">:</td><td><div></div></td></tr><tr><td style="font-weight:bold;vertical-align:top;">secure</td><td style="vertical-align:top;">:</td><td><div></div></td></tr><tr><td style="font-weight:bold;vertical-align:top;">version</td><td style="vertical-align:top;">:</td><td><div></div></td></tr></table></div></td></tr><tr><td style="font-weight:bold;vertical-align:top;">session_id_hw3sub2</td><td style="vertical-align:top;">:</td><td><div>127.0.0.1-beb10d97-7199-43d6-a265-4b7ab37af667<table><tr><td style="font-weight:bold;vertical-align:top;">comment</td><td style="vertical-align:top;">:</td><td><div></div></td></tr><tr><td style="font-weight:bold;vertical-align:top;">domain</td><td style="vertical-align:top;">:</td><td><div></div></td></tr><tr><td style="font-weight:bold;vertical-align:top;">expires</td><td style="vertical-align:top;">:</td><td><div></div></td></tr><tr><td style="font-weight:bold;vertical-align:top;">httponly</td><td style="vertical-align:top;">:</td><td><div></div></td></tr><tr><td style="font-weight:bold;vertical-align:top;">max-age</td><td style="vertical-align:top;">:</td><td><div></div></td></tr><tr><td style="font-weight:bold;vertical-align:top;">path</td><td style="vertical-align:top;">:</td><td><div></div></td></tr><tr><td style="font-weight:bold;vertical-align:top;">secure</td><td style="vertical-align:top;">:</td><td><div></div></td></tr><tr><td style="font-weight:bold;vertical-align:top;">version</td><td style="vertical-align:top;">:</td><td><div></div></td></tr></table></div></td></tr><tr><td style="font-weight:bold;vertical-align:top;">session_id_hw3sub3</td><td style="vertical-align:top;">:</td><td><div>127.0.0.1-a8ae2c72-0e95-4bc1-a154-e7657f199764<table><tr><td style="font-weight:bold;vertical-align:top;">comment</td><td style="vertical-align:top;">:</td><td><div></div></td></tr><tr><td style="font-weight:bold;vertical-align:top;">domain</td><td style="vertical-align:top;">:</td><td><div></div></td></tr><tr><td style="font-weight:bold;vertical-align:top;">expires</td><td style="vertical-align:top;">:</td><td><div></div></td></tr><tr><td style="font-weight:bold;vertical-align:top;">httponly</td><td style="vertical-align:top;">:</td><td><div></div></td></tr><tr><td style="font-weight:bold;vertical-align:top;">max-age</td><td style="vertical-align:top;">:</td><td><div></div></td></tr><tr><td style="font-weight:bold;vertical-align:top;">path</td><td style="vertical-align:top;">:</td><td><div></div></td></tr><tr><td style="font-weight:bold;vertical-align:top;">secure</td><td style="vertical-align:top;">:</td><td><div></div></td></tr><tr><td style="font-weight:bold;vertical-align:top;">version</td><td style="vertical-align:top;">:</td><td><div></div></td></tr></table></div></td></tr><tr><td style="font-weight:bold;vertical-align:top;">session_id_hw3sub4</td><td style="vertical-align:top;">:</td><td><div>127.0.0.1-1dd61602-858e-4cbc-9574-a9ac32b108c6<table><tr><td style="font-weight:bold;vertical-align:top;">comment</td><td style="vertical-align:top;">:</td><td><div></div></td></tr><tr><td style="font-weight:bold;vertical-align:top;">domain</td><td style="vertical-align:top;">:</td><td><div></div></td></tr><tr><td style="font-weight:bold;vertical-align:top;">expires</td><td style="vertical-align:top;">:</td><td><div></div></td></tr><tr><td style="font-weight:bold;vertical-align:top;">httponly</td><td style="vertical-align:top;">:</td><td><div></div></td></tr><tr><td style="font-weight:bold;vertical-align:top;">max-age</td><td style="vertical-align:top;">:</td><td><div></div></td></tr><tr><td style="font-weight:bold;vertical-align:top;">path</td><td style="vertical-align:top;">:</td><td><div></div></td></tr><tr><td style="font-weight:bold;vertical-align:top;">secure</td><td style="vertical-align:top;">:</td><td><div></div></td></tr><tr><td style="font-weight:bold;vertical-align:top;">version</td><td style="vertical-align:top;">:</td><td><div></div></td></tr></table></div></td></tr><tr><td style="font-weight:bold;vertical-align:top;">session_id_slugwiki</td><td style="vertical-align:top;">:</td><td><div>127.0.0.1-a2c7ba1c-f0d5-4c8f-a7f8-85d68972855d<table><tr><td style="font-weight:bold;vertical-align:top;">comment</td><td style="vertical-align:top;">:</td><td><div></div></td></tr><tr><td style="font-weight:bold;vertical-align:top;">domain</td><td style="vertical-align:top;">:</td><td><div></div></td></tr><tr><td style="font-weight:bold;vertical-align:top;">expires</td><td style="vertical-align:top;">:</td><td><div></div></td></tr><tr><td style="font-weight:bold;vertical-align:top;">httponly</td><td style="vertical-align:top;">:</td><td><div></div></td></tr><tr><td style="font-weight:bold;vertical-align:top;">max-age</td><td style="vertical-align:top;">:</td><td><div></div></td></tr><tr><td style="font-weight:bold;vertical-align:top;">path</td><td style="vertical-align:top;">:</td><td><div></div></td></tr><tr><td style="font-weight:bold;vertical-align:top;">secure</td><td style="vertical-align:top;">:</td><td><div></div></td></tr><tr><td style="font-weight:bold;vertical-align:top;">version</td><td style="vertical-align:top;">:</td><td><div></div></td></tr></table></div></td></tr><tr><td style="font-weight:bold;vertical-align:top;">session_id_welcome</td><td style="vertical-align:top;">:</td><td><div>127.0.0.1-75f4e993-1d87-4857-b9b0-ebe4c798ce8f<table><tr><td style="font-weight:bold;vertical-align:top;">comment</td><td style="vertical-align:top;">:</td><td><div></div></td></tr><tr><td style="font-weight:bold;vertical-align:top;">domain</td><td style="vertical-align:top;">:</td><td><div></div></td></tr><tr><td style="font-weight:bold;vertical-align:top;">expires</td><td style="vertical-align:top;">:</td><td><div></div></td></tr><tr><td style="font-weight:bold;vertical-align:top;">httponly</td><td style="vertical-align:top;">:</td><td><div></div></td></tr><tr><td style="font-weight:bold;vertical-align:top;">max-age</td><td style="vertical-align:top;">:</td><td><div></div></td></tr><tr><td style="font-weight:bold;vertical-align:top;">path</td><td style="vertical-align:top;">:</td><td><div></div></td></tr><tr><td style="font-weight:bold;vertical-align:top;">secure</td><td style="vertical-align:top;">:</td><td><div></div></td></tr><tr><td style="font-weight:bold;vertical-align:top;">version</td><td style="vertical-align:top;">:</td><td><div></div></td></tr></table></div></td></tr></table></div></td></tr><tr><td style="font-weight:bold;vertical-align:top;">env</td><td style="vertical-align:top;">:</td><td><div><table><tr><td style="font-weight:bold;vertical-align:top;">HTTP_ACCEPT</td><td style="vertical-align:top;">:</td><td><div>text/html,application/xhtml+xml,application/xml;q=0.9,image/webp,*/*;q=0.8</div></td></tr><tr><td style="font-weight:bold;vertical-align:top;">HTTP_ACCEPT_ENCODING</td><td style="vertical-align:top;">:</td><td><div>gzip, deflate, sdch</div></td></tr><tr><td style="font-weight:bold;vertical-align:top;">HTTP_ACCEPT_LANGUAGE</td><td style="vertical-align:top;">:</td><td><div>en-US,en;q=0.8,es;q=0.6</div></td></tr><tr><td style="font-weight:bold;vertical-align:top;">HTTP_CACHE_CONTROL</td><td style="vertical-align:top;">:</td><td><div>max-age=0</div></td></tr><tr><td style="font-weight:bold;vertical-align:top;">HTTP_CONNECTION</td><td style="vertical-align:top;">:</td><td><div>keep-alive</div></td></tr><tr><td style="font-weight:bold;vertical-align:top;">HTTP_COOKIE</td><td style="vertical-align:top;">:</td><td><div>session_id_hw1sub2=127.0.0.1-aad81459-e3e8-42c2-9d0f-8958df37866d; session_id_hw1sub3=127.0.0.1-0a072570-21a9-46ea-8a28-ae17c9d741f2; session_id_hw1sub4=127.0.0.1-3723f225-5536-41db-af1e-5a55868fdc8d; session_id_hw2sub1=127.0.0.1-f8a9274e-c197-4b84-9029-519fe962bd32; session_id_hw2sub2=127.0.0.1-24da8c36-8f65-446c-9a9a-00a293c6440c; session_id_hw2sub3=127.0.0.1-2619de95-10e2-44e0-9b06-6aedb65a544e; session_id_hw2sub4=127.0.0.1-682929c0-5ab4-40b5-aa37-3a6045be344d; session_id_hw3sub2=127.0.0.1-beb10d97-7199-43d6-a265-4b7ab37af667; session_id_hw3sub1=127.0.0.1-fafe9c3b-a7ba-4a6e-a550-fa830b18945b; session_id_hw3sub3=127.0.0.1-a8ae2c72-0e95-4bc1-a154-e7657f199764; session_id_hw3sub4=127.0.0.1-1dd61602-858e-4cbc-9574-a9ac32b108c6; session_id_slugwiki=127.0.0.1-a2c7ba1c-f0d5-4c8f-a7f8-85d68972855d; session_id_forsale=127.0.0.1-fc0df072-d1e9-4b88-973f-e70cac96d160; session_id_bboard=127.0.0.1-6ccfe1c7-fbf1-4298-87b0-6c34729aebaa; session_id_welcome=127.0.0.1-75f4e993-1d87-4857-b9b0-ebe4c798ce8f; session_id_admin=127.0.0.1-2726a9d8-295b-4036-92c8-056398564f08; session_id_ballislife=127.0.0.1-4a74681f-3520-4970-add6-efb27186e509</div></td></tr><tr><td style="font-weight:bold;vertical-align:top;">HTTP_HOST</td><td style="vertical-align:top;">:</td><td><div>127.0.0.1:8000</div></td></tr><tr><td style="font-weight:bold;vertical-align:top;">HTTP_USER_AGENT</td><td style="vertical-align:top;">:</td><td><div>Mozilla/5.0 (Macintosh; Intel Mac OS X 10_10_1) AppleWebKit/537.36 (KHTML, like Gecko) Chrome/41.0.2272.76 Safari/537.36</div></td></tr><tr><td style="font-weight:bold;vertical-align:top;">PATH_INFO</td><td style="vertical-align:top;">:</td><td><div>/ballislife/default/view/158</div></td></tr><tr><td style="font-weight:bold;vertical-align:top;">QUERY_STRING</td><td style="vertical-align:top;">:</td><td><div></div></td></tr><tr><td style="font-weight:bold;vertical-align:top;">REMOTE_ADDR</td><td style="vertical-align:top;">:</td><td><div>127.0.0.1</div></td></tr><tr><td style="font-weight:bold;vertical-align:top;">REMOTE_PORT</td><td style="vertical-align:top;">:</td><td><div>53300</div></td></tr><tr><td style="font-weight:bold;vertical-align:top;">REQUEST_METHOD</td><td style="vertical-align:top;">:</td><td><div>GET</div></td></tr><tr><td style="font-weight:bold;vertical-align:top;">SCRIPT_NAME</td><td style="vertical-align:top;">:</td><td><div></div></td></tr><tr><td style="font-weight:bold;vertical-align:top;">SERVER_NAME</td><td style="vertical-align:top;">:</td><td><div>dhcp-209-106.cruznet.ucsc.edu</div></td></tr><tr><td style="font-weight:bold;vertical-align:top;">SERVER_PORT</td><td style="vertical-align:top;">:</td><td><div>8000</div></td></tr><tr><td style="font-weight:bold;vertical-align:top;">SERVER_PROTOCOL</td><td style="vertical-align:top;">:</td><td><div>HTTP/1.1</div></td></tr><tr><td style="font-weight:bold;vertical-align:top;">SERVER_SOFTWARE</td><td style="vertical-align:top;">:</td><td><div>Rocket 1.2.6</div></td></tr><tr><td style="font-weight:bold;vertical-align:top;">app_folders</td><td style="vertical-align:top;">:</td><td><div>set([&#x27;/Users/AlyanShafique/Documents/web2py/web2py/applications/admin/&#x27;, &#x27;/Users/AlyanShafique/Documents/web2py/web2py/applications/ballislife/&#x27;, &#x27;/Users/AlyanShafique/Documents/web2py/web2py/applications/welcome/&#x27;])</div></td></tr><tr><td style="font-weight:bold;vertical-align:top;">applications_parent</td><td style="vertical-align:top;">:</td><td><div>/Users/AlyanShafique/Documents/web2py/web2py</div></td></tr><tr><td style="font-weight:bold;vertical-align:top;">cmd_args</td><td style="vertical-align:top;">:</td><td><div><table></table></div></td></tr><tr><td style="font-weight:bold;vertical-align:top;">cmd_options</td><td style="vertical-align:top;">:</td><td><div>&lt;Values at 0x1046455a8: {&#x27;verbose&#x27;: False, &#x27;ip&#x27;: &#x27;127.0.0.1&#x27;, &#x27;debuglevel&#x27;: 30, &#x27;with_scheduler&#x27;: False, &#x27;ips&#x27;: [&#x27;169.233.209.106&#x27;], &#x27;shutdown_timeout&#x27;: 5, &#x27;taskbar&#x27;: False, &#x27;with_coverage&#x27;: False, &#x27;scheduler_groups&#x27;: None, &#x27;port&#x27;: 8000, &#x27;maxthreads&#x27;: None, &#x27;softcron&#x27;: False, &#x27;server_name&#x27;: &#x27;dhcp-209-106.cruznet.ucsc.edu&#x27;, &#x27;bpython&#x27;: False, &#x27;nogui&#x27;: False, &#x27;pid_filename&#x27;: &#x27;httpserver.pid&#x27;, &#x27;print_errors&#x27;: False, &#x27;extcron&#x27;: False, &#x27;runcron&#x27;: False, &#x27;run_system_tests&#x27;: False, &#x27;test&#x27;: None, &#x27;folder&#x27;: &#x27;/Users/AlyanShafique/Documents/web2py/web2py&#x27;, &#x27;config&#x27;: &#x27;&#x27;, &#x27;minthreads&#x27;: None, &#x27;shell&#x27;: None, &#x27;run&#x27;: &#x27;&#x27;, &#x27;log_filename&#x27;: &#x27;httpserver.log&#x27;, &#x27;profiler_dir&#x27;: None, &#x27;args&#x27;: [&#x27;&#x27;], &#x27;socket_timeout&#x27;: 5, &#x27;ssl_ca_certificate&#x27;: None, &#x27;scheduler&#x27;: None, &#x27;interfaces&#x27;: None, &#x27;ssl_private_key&#x27;: &#x27;&#x27;, &#x27;gae&#x27;: None, &#x27;password&#x27;: &#x27;&lt;ask&gt;&#x27;, &#x27;request_queue_size&#x27;: 5, &#x27;ssl_certificate&#x27;: &#x27;&#x27;, &#x27;cronjob&#x27;: False, &#x27;numthreads&#x27;: None, &#x27;quiet&#x27;: False, &#x27;import_models&#x27;: False, &#x27;timeout&#x27;: 10, &#x27;plain&#x27;: False, &#x27;nobanner&#x27;: False}&gt;</div></td></tr><tr><td style="font-weight:bold;vertical-align:top;">db_sessions</td><td style="vertical-align:top;">:</td><td><div>set([])</div></td></tr><tr><td style="font-weight:bold;vertical-align:top;">debugging</td><td style="vertical-align:top;">:</td><td><div>True</div></td></tr><tr><td style="font-weight:bold;vertical-align:top;">gluon_parent</td><td style="vertical-align:top;">:</td><td><div>/Users/AlyanShafique/Documents/web2py/web2py</div></td></tr><tr><td style="font-weight:bold;vertical-align:top;">http_accept</td><td style="vertical-align:top;">:</td><td><div>text/html,application/xhtml+xml,application/xml;q=0.9,image/webp,*/*;q=0.8</div></td></tr><tr><td style="font-weight:bold;vertical-align:top;">http_accept_encoding</td><td style="vertical-align:top;">:</td><td><div>gzip, deflate, sdch</div></td></tr><tr><td style="font-weight:bold;vertical-align:top;">http_accept_language</td><td style="vertical-align:top;">:</td><td><div>en-US,en;q=0.8,es;q=0.6</div></td></tr><tr><td style="font-weight:bold;vertical-align:top;">http_cache_control</td><td style="vertical-align:top;">:</td><td><div>max-age=0</div></td></tr><tr><td style="font-weight:bold;vertical-align:top;">http_connection</td><td style="vertical-align:top;">:</td><td><div>keep-alive</div></td></tr><tr><td style="font-weight:bold;vertical-align:top;">http_cookie</td><td style="vertical-align:top;">:</td><td><div>session_id_hw1sub2=127.0.0.1-aad81459-e3e8-42c2-9d0f-8958df37866d; session_id_hw1sub3=127.0.0.1-0a072570-21a9-46ea-8a28-ae17c9d741f2; session_id_hw1sub4=127.0.0.1-3723f225-5536-41db-af1e-5a55868fdc8d; session_id_hw2sub1=127.0.0.1-f8a9274e-c197-4b84-9029-519fe962bd32; session_id_hw2sub2=127.0.0.1-24da8c36-8f65-446c-9a9a-00a293c6440c; session_id_hw2sub3=127.0.0.1-2619de95-10e2-44e0-9b06-6aedb65a544e; session_id_hw2sub4=127.0.0.1-682929c0-5ab4-40b5-aa37-3a6045be344d; session_id_hw3sub2=127.0.0.1-beb10d97-7199-43d6-a265-4b7ab37af667; session_id_hw3sub1=127.0.0.1-fafe9c3b-a7ba-4a6e-a550-fa830b18945b; session_id_hw3sub3=127.0.0.1-a8ae2c72-0e95-4bc1-a154-e7657f199764; session_id_hw3sub4=127.0.0.1-1dd61602-858e-4cbc-9574-a9ac32b108c6; session_id_slugwiki=127.0.0.1-a2c7ba1c-f0d5-4c8f-a7f8-85d68972855d; session_id_forsale=127.0.0.1-fc0df072-d1e9-4b88-973f-e70cac96d160; session_id_bboard=127.0.0.1-6ccfe1c7-fbf1-4298-87b0-6c34729aebaa; session_id_welcome=127.0.0.1-75f4e993-1d87-4857-b9b0-ebe4c798ce8f; session_id_admin=127.0.0.1-2726a9d8-295b-4036-92c8-056398564f08; session_id_ballislife=127.0.0.1-4a74681f-3520-4970-add6-efb27186e509</div></td></tr><tr><td style="font-weight:bold;vertical-align:top;">http_host</td><td style="vertical-align:top;">:</td><td><div>127.0.0.1:8000</div></td></tr><tr><td style="font-weight:bold;vertical-align:top;">http_user_agent</td><td style="vertical-align:top;">:</td><td><div>Mozilla/5.0 (Macintosh; Intel Mac OS X 10_10_1) AppleWebKit/537.36 (KHTML, like Gecko) Chrome/41.0.2272.76 Safari/537.36</div></td></tr><tr><td style="font-weight:bold;vertical-align:top;">is_jython</td><td style="vertical-align:top;">:</td><td><div>False</div></td></tr><tr><td style="font-weight:bold;vertical-align:top;">is_pypy</td><td style="vertical-align:top;">:</td><td><div>False</div></td></tr><tr><td style="font-weight:bold;vertical-align:top;">is_source</td><td style="vertical-align:top;">:</td><td><div>True</div></td></tr><tr><td style="font-weight:bold;vertical-align:top;">local_hosts</td><td style="vertical-align:top;">:</td><td><div><table><tr><td><div>::1</div></td></tr><tr><td><div>dhcp-209-106.cruznet.ucsc.edu</div></td></tr><tr><td><div>::ffff:127.0.0.1</div></td></tr><tr><td><div>127.0.0.1</div></td></tr><tr><td><div>169.233.209.106</div></td></tr></table></div></td></tr><tr><td style="font-weight:bold;vertical-align:top;">path_info</td><td style="vertical-align:top;">:</td><td><div>/ballislife/default/view/158</div></td></tr><tr><td style="font-weight:bold;vertical-align:top;">query_string</td><td style="vertical-align:top;">:</td><td><div></div></td></tr><tr><td style="font-weight:bold;vertical-align:top;">remote_addr</td><td style="vertical-align:top;">:</td><td><div>127.0.0.1</div></td></tr><tr><td style="font-weight:bold;vertical-align:top;">remote_port</td><td style="vertical-align:top;">:</td><td><div>53300</div></td></tr><tr><td style="font-weight:bold;vertical-align:top;">request_method</td><td style="vertical-align:top;">:</td><td><div>GET</div></td></tr><tr><td style="font-weight:bold;vertical-align:top;">request_uri</td><td style="vertical-align:top;">:</td><td><div>/ballislife/default/view/158</div></td></tr><tr><td style="font-weight:bold;vertical-align:top;">script_name</td><td style="vertical-align:top;">:</td><td><div></div></td></tr><tr><td style="font-weight:bold;vertical-align:top;">server_name</td><td style="vertical-align:top;">:</td><td><div>dhcp-209-106.cruznet.ucsc.edu</div></td></tr><tr><td style="font-weight:bold;vertical-align:top;">server_port</td><td style="vertical-align:top;">:</td><td><div>8000</div></td></tr><tr><td style="font-weight:bold;vertical-align:top;">server_protocol</td><td style="vertical-align:top;">:</td><td><div>HTTP/1.1</div></td></tr><tr><td style="font-weight:bold;vertical-align:top;">server_software</td><td style="vertical-align:top;">:</td><td><div>Rocket 1.2.6</div></td></tr><tr><td style="font-weight:bold;vertical-align:top;">web2py_path</td><td style="vertical-align:top;">:</td><td><div>/Users/AlyanShafique/Documents/web2py/web2py</div></td></tr><tr><td style="font-weight:bold;vertical-align:top;">web2py_version</td><td style="vertical-align:top;">:</td><td><div>2.9.12-stable+timestamp.2015.02.13.23.31.09</div></td></tr><tr><td style="font-weight:bold;vertical-align:top;">wsgi.errors</td><td style="vertical-align:top;">:</td><td><div>&lt;open file &#x27;&lt;stderr&gt;&#x27;, mode &#x27;w&#x27; at 0x10028e1e0&gt;</div></td></tr><tr><td style="font-weight:bold;vertical-align:top;">wsgi.file_wrapper</td><td style="vertical-align:top;">:</td><td><div>&lt;class wsgiref.util.FileWrapper at 0x1039b4120&gt;</div></td></tr><tr><td style="font-weight:bold;vertical-align:top;">wsgi.input</td><td style="vertical-align:top;">:</td><td><div>&lt;socket._fileobject object at 0x110b8a4d0&gt;</div></td></tr><tr><td style="font-weight:bold;vertical-align:top;">wsgi.multiprocess</td><td style="vertical-align:top;">:</td><td><div>False</div></td></tr><tr><td style="font-weight:bold;vertical-align:top;">wsgi.multithread</td><td style="vertical-align:top;">:</td><td><div>True</div></td></tr><tr><td style="font-weight:bold;vertical-align:top;">wsgi.run_once</td><td style="vertical-align:top;">:</td><td><div>False</div></td></tr><tr><td style="font-weight:bold;vertical-align:top;">wsgi.url_scheme</td><td style="vertical-align:top;">:</td><td><div>http</div></td></tr><tr><td style="font-weight:bold;vertical-align:top;">wsgi.version</td><td style="vertical-align:top;">:</td><td><div><table><tr><td><div>1</div></td></tr><tr><td><div>0</div></td></tr></table></div></td></tr><tr><td style="font-weight:bold;vertical-align:top;">wsgi_errors</td><td style="vertical-align:top;">:</td><td><div>&lt;open file &#x27;&lt;stderr&gt;&#x27;, mode &#x27;w&#x27; at 0x10028e1e0&gt;</div></td></tr><tr><td style="font-weight:bold;vertical-align:top;">wsgi_file_wrapper</td><td style="vertical-align:top;">:</td><td><div>&lt;class wsgiref.util.FileWrapper at 0x1039b4120&gt;</div></td></tr><tr><td style="font-weight:bold;vertical-align:top;">wsgi_input</td><td style="vertical-align:top;">:</td><td><div>&lt;socket._fileobject object at 0x110b8a4d0&gt;</div></td></tr><tr><td style="font-weight:bold;vertical-align:top;">wsgi_multiprocess</td><td style="vertical-align:top;">:</td><td><div>False</div></td></tr><tr><td style="font-weight:bold;vertical-align:top;">wsgi_multithread</td><td style="vertical-align:top;">:</td><td><div>True</div></td></tr><tr><td style="font-weight:bold;vertical-align:top;">wsgi_run_once</td><td style="vertical-align:top;">:</td><td><div>False</div></td></tr><tr><td style="font-weight:bold;vertical-align:top;">wsgi_url_scheme</td><td style="vertical-align:top;">:</td><td><div>http</div></td></tr><tr><td style="font-weight:bold;vertical-align:top;">wsgi_version</td><td style="vertical-align:top;">:</td><td><div><table><tr><td><div>1</div></td></tr><tr><td><div>0</div></td></tr></table></div></td></tr></table></div></td></tr><tr><td style="font-weight:bold;vertical-align:top;">extension</td><td style="vertical-align:top;">:</td><td><div>html</div></td></tr><tr><td style="font-weight:bold;vertical-align:top;">folder</td><td style="vertical-align:top;">:</td><td><div>/Users/AlyanShafique/Documents/web2py/web2py/applications/ballislife/</div></td></tr><tr><td style="font-weight:bold;vertical-align:top;">function</td><td style="vertical-align:top;">:</td><td><div>view</div></td></tr><tr><td style="font-weight:bold;vertical-align:top;">global_settings</td><td style="vertical-align:top;">:</td><td><div><table><tr><td style="font-weight:bold;vertical-align:top;">app_folders</td><td style="vertical-align:top;">:</td><td><div>set([&#x27;/Users/AlyanShafique/Documents/web2py/web2py/applications/admin/&#x27;, &#x27;/Users/AlyanShafique/Documents/web2py/web2py/applications/ballislife/&#x27;, &#x27;/Users/AlyanShafique/Documents/web2py/web2py/applications/welcome/&#x27;])</div></td></tr><tr><td style="font-weight:bold;vertical-align:top;">applications_parent</td><td style="vertical-align:top;">:</td><td><div>/Users/AlyanShafique/Documents/web2py/web2py</div></td></tr><tr><td style="font-weight:bold;vertical-align:top;">cmd_args</td><td style="vertical-align:top;">:</td><td><div><table></table></div></td></tr><tr><td style="font-weight:bold;vertical-align:top;">cmd_options</td><td style="vertical-align:top;">:</td><td><div>&lt;Values at 0x1046455a8: {&#x27;verbose&#x27;: False, &#x27;ip&#x27;: &#x27;127.0.0.1&#x27;, &#x27;debuglevel&#x27;: 30, &#x27;with_scheduler&#x27;: False, &#x27;ips&#x27;: [&#x27;169.233.209.106&#x27;], &#x27;shutdown_timeout&#x27;: 5, &#x27;taskbar&#x27;: False, &#x27;with_coverage&#x27;: False, &#x27;scheduler_groups&#x27;: None, &#x27;port&#x27;: 8000, &#x27;maxthreads&#x27;: None, &#x27;softcron&#x27;: False, &#x27;server_name&#x27;: &#x27;dhcp-209-106.cruznet.ucsc.edu&#x27;, &#x27;bpython&#x27;: False, &#x27;nogui&#x27;: False, &#x27;pid_filename&#x27;: &#x27;httpserver.pid&#x27;, &#x27;print_errors&#x27;: False, &#x27;extcron&#x27;: False, &#x27;runcron&#x27;: False, &#x27;run_system_tests&#x27;: False, &#x27;test&#x27;: None, &#x27;folder&#x27;: &#x27;/Users/AlyanShafique/Documents/web2py/web2py&#x27;, &#x27;config&#x27;: &#x27;&#x27;, &#x27;minthreads&#x27;: None, &#x27;shell&#x27;: None, &#x27;run&#x27;: &#x27;&#x27;, &#x27;log_filename&#x27;: &#x27;httpserver.log&#x27;, &#x27;profiler_dir&#x27;: None, &#x27;args&#x27;: [&#x27;&#x27;], &#x27;socket_timeout&#x27;: 5, &#x27;ssl_ca_certificate&#x27;: None, &#x27;scheduler&#x27;: None, &#x27;interfaces&#x27;: None, &#x27;ssl_private_key&#x27;: &#x27;&#x27;, &#x27;gae&#x27;: None, &#x27;password&#x27;: &#x27;&lt;ask&gt;&#x27;, &#x27;request_queue_size&#x27;: 5, &#x27;ssl_certificate&#x27;: &#x27;&#x27;, &#x27;cronjob&#x27;: False, &#x27;numthreads&#x27;: None, &#x27;quiet&#x27;: False, &#x27;import_models&#x27;: False, &#x27;timeout&#x27;: 10, &#x27;plain&#x27;: False, &#x27;nobanner&#x27;: False}&gt;</div></td></tr><tr><td style="font-weight:bold;vertical-align:top;">db_sessions</td><td style="vertical-align:top;">:</td><td><div>set([])</div></td></tr><tr><td style="font-weight:bold;vertical-align:top;">debugging</td><td style="vertical-align:top;">:</td><td><div>True</div></td></tr><tr><td style="font-weight:bold;vertical-align:top;">gluon_parent</td><td style="vertical-align:top;">:</td><td><div>/Users/AlyanShafique/Documents/web2py/web2py</div></td></tr><tr><td style="font-weight:bold;vertical-align:top;">is_jython</td><td style="vertical-align:top;">:</td><td><div>False</div></td></tr><tr><td style="font-weight:bold;vertical-align:top;">is_pypy</td><td style="vertical-align:top;">:</td><td><div>False</div></td></tr><tr><td style="font-weight:bold;vertical-align:top;">is_source</td><td style="vertical-align:top;">:</td><td><div>True</div></td></tr><tr><td style="font-weight:bold;vertical-align:top;">local_hosts</td><td style="vertical-align:top;">:</td><td><div><table><tr><td><div>::1</div></td></tr><tr><td><div>dhcp-209-106.cruznet.ucsc.edu</div></td></tr><tr><td><div>::ffff:127.0.0.1</div></td></tr><tr><td><div>127.0.0.1</div></td></tr><tr><td><div>169.233.209.106</div></td></tr></table></div></td></tr><tr><td style="font-weight:bold;vertical-align:top;">web2py_version</td><td style="vertical-align:top;">:</td><td><div>2.9.12-stable+timestamp.2015.02.13.23.31.09</div></td></tr></table></div></td></tr><tr><td style="font-weight:bold;vertical-align:top;">is_https</td><td style="vertical-align:top;">:</td><td><div>False</div></td></tr><tr><td style="font-weight:bold;vertical-align:top;">is_local</td><td style="vertical-align:top;">:</td><td><div>True</div></td></tr><tr><td style="font-weight:bold;vertical-align:top;">is_restful</td><td style="vertical-align:top;">:</td><td><div>False</div></td></tr><tr><td style="font-weight:bold;vertical-align:top;">is_sheduler</td><td style="vertical-align:top;">:</td><td><div>None</div></td></tr><tr><td style="font-weight:bold;vertical-align:top;">is_shell</td><td style="vertical-align:top;">:</td><td><div>None</div></td></tr><tr><td style="font-weight:bold;vertical-align:top;">now</td><td style="vertical-align:top;">:</td><td><div>datetime.datetime(2015, 3, 10, 11, 56, 57, 128304)</div></td></tr><tr><td style="font-weight:bold;vertical-align:top;">raw_args</td><td style="vertical-align:top;">:</td><td><div>158</div></td></tr><tr><td style="font-weight:bold;vertical-align:top;">raw_extension</td><td style="vertical-align:top;">:</td><td><div>None</div></td></tr><tr><td style="font-weight:bold;vertical-align:top;">url</td><td style="vertical-align:top;">:</td><td><div>/ballislife/default/view/158</div></td></tr><tr><td style="font-weight:bold;vertical-align:top;">utcnow</td><td style="vertical-align:top;">:</td><td><div>datetime.datetime(2015, 3, 10, 18, 56, 57, 128313)</div></td></tr><tr><td style="font-weight:bold;vertical-align:top;">uuid</td><td style="vertical-align:top;">:</td><td><div>ballislife/127.0.0.1.2015-03-10.11-56-57.7165f3e0-6806-4bb3-850b-f8601ff2f311</div></td></tr><tr><td style="font-weight:bold;vertical-align:top;">wsgi</td><td style="vertical-align:top;">:</td><td><div>&lt;gluon.main.LazyWSGI object at 0x10478a910&gt;</div></td></tr></table></div>'
tRp57
sS'frames'
p58
(lp59
(dp60
S'file'
p61
S'/Users/AlyanShafique/Documents/web2py/web2py/gluon/restricted.py'
p62
sS'dump'
p63
(dp64
S'environment'
p65
S"{'A': <class 'gluon.html.A'>, 'ANY_OF': <class 'gluon.validators.ANY_OF'>, 'ASSIGNJS': <function ASSIGNJS>, 'Auth': <class 'gluon.tools.Auth'>, 'B': <class 'gluon.html.B'>, 'BEAUTIFY': <class 'gluon.html.BEAUTIFY'>, 'BODY': <class 'gluon.html.BODY'>, 'BR': <class 'gluon.html.BR'>, 'BUTTON': <class 'gluon.html.BUTTON'>, 'CAT': <class 'gluon.html.CAT'>, ...}"
p66
sS'ccode'
p67
S'<code object <module> at 0x1105ad4b0, file "/Use...ions/ballislife/controllers/default.py", line 11>'
p68
ssS'lnum'
p69
I226
sS'lines'
p70
(dp71
I224
S'        else:'
p72
sI225
S'            ccode = compile2(code, layer)'
p73
sI226
S'        exec ccode in environment'
p74
sI227
S'    except HTTP:'
p75
sI228
S'        raise'
p76
sI229
S'    except RestrictedError:'
p77
sI230
S'        # do not encapsulate (obfuscate) the original RestrictedError'
p78
sI221
S'    try:'
p79
sI222
S'        if isinstance(code, types.CodeType):'
p80
sI223
S'            ccode = code'
p81
ssS'call'
p82
S"(code='# -*- coding: utf-8 -*-\\n# this file is released ...se,rules)\\n\\nresponse._vars=response._caller(view)\\n', environment={'A': <class 'gluon.html.A'>, 'ANY_OF': <class 'gluon.validators.ANY_OF'>, 'ASSIGNJS': <function ASSIGNJS>, 'Auth': <class 'gluon.tools.Auth'>, 'B': <class 'gluon.html.B'>, 'BEAUTIFY': <class 'gluon.html.BEAUTIFY'>, 'BODY': <class 'gluon.html.BODY'>, 'BR': <class 'gluon.html.BR'>, 'BUTTON': <class 'gluon.html.BUTTON'>, 'CAT': <class 'gluon.html.CAT'>, ...}, layer='/Users/AlyanShafique/Documents/web2py/web2py/applications/ballislife/controllers/default.py')"
p83
sS'func'
p84
S'restricted'
p85
sa(dp86
g61
S'/Users/AlyanShafique/Documents/web2py/web2py/applications/ballislife/controllers/default.py'
p87
sg63
(dp88
sg69
I433
sg70
(dp89
I422
S'def api():'
p90
sI423
S'    """'
p91
sI424
S'    this is example of API with access control'
p92
sI425
S'    WEB2PY provides Hypermedia API (Collection+JSON) Experimental'
p93
sI426
S'    """'
p94
sI427
S'    from gluon.contrib.hypermedia import Collection'
p95
sI428
S'    rules = {'
p96
sI429
S"        '<tablename>': {'GET':{},'POST':{},'PUT':{},'DELETE':{}},"
p97
sI430
S'        }'
p98
sI431
S'    return Collection(db).process(request,response,rules)'
p99
ssg82
S'()'
p100
sg84
S'<module>'
p101
sa(dp102
g61
S'/Users/AlyanShafique/Documents/web2py/web2py/gluon/globals.py'
p103
sg63
(dp104
S'self'
p105
S'undefined'
p106
sS'f'
S'<function view>'
p107
ssg69
I393
sg70
(dp108
I388
S"        self.flash = ''            # used by the default view layout"
p109
sI389
S'        self.meta = Storage()      # used by web2py_ajax.html'
p110
sI390
S'        self.menu = []             # used by the default view layout'
p111
sI391
S'        self.files = []            # used by web2py_ajax.html'
p112
sI392
S'        self._vars = None'
p113
sI393
S'        self._caller = lambda f: f()'
p114
sI394
S'        self._view_environment = None'
p115
sI395
S'        self._custom_commit = None'
p116
sI396
S'        self._custom_rollback = None'
p117
sI397
S"        self.generic_patterns = ['*']"
p118
ssg82
S'(f=<function view>)'
p119
sg84
S'<lambda>'
p120
sa(dp121
g61
S'/Users/AlyanShafique/Documents/web2py/web2py/applications/ballislife/controllers/default.py'
p122
sg63
(dp123
S'global find_curent_stats'
p124
S'<function find_curent_stats>'
p125
ssg69
I339
sg70
(dp126
I334
S'    player_info_df = player_info_df.to_html(classes="table table-condensed",index=False)'
p127
sI335
S'    #print player_info_df'
p128
sI336
S'    reg_stats_df = pd.DataFrame(players,columns = reg_stats_cols)'
p129
sI337
S'    reg_stats_df = reg_stats_df.to_html(classes="table table-condensed", index=False)"""'
p130
sI338
S'    #return dict(player_info_df=player_info_df,reg_stats_df=reg_stats_df)'
p131
sI339
S'    find_curent_stats()'
p132
sI340
S"    return 'hello'"
p133
sI341
S''
sI342
S'def stats():'
p134
sI343
S"    with open ('applications/ballislife/static/team_players.json') as f:"
p135
ssg82
S'()'
p136
sg84
S'view'
p137
sa(dp138
g61
S'/Users/AlyanShafique/Documents/web2py/web2py/applications/ballislife/controllers/default.py'
p139
sg63
(dp140
S'results'
p141
S"{u'parameters': {u'DateFrom': None, u'DateTo': None, u'GameScope': None, u'GameSegment': None, u'LastNGames': 0, u'LeagueID': u'00', u'Location': None, u'MeasureType': u'Advanced', u'Month': 0, u'OpponentTeamID': 0, ...}, u'resource': u'leaguedashteamstats', u'resultSets': [{u'headers': [u'TEAM_ID', u'TEAM_NAME', u'GP', u'W', u'L', u'W_PCT', u'MIN', u'OFF_RATING', u'DEF_RATING', u'NET_RATING', u'AST_PCT', u'AST_TO', u'AST_RATIO', u'OREB_PCT', u'DREB_PCT', u'REB_PCT', u'TM_TOV_PCT', u'EFG_PCT', u'TS_PCT', u'PACE', ...], u'name': u'LeagueDashTeamStats', u'rowSet': [[1610612737, u'Atlanta Hawks', 63, 50, 13, 0.794, 3034.0, 106.6, 100.0, 6.6, 0.678, 1.79, 19.7, 0.213, 0.733, 0.484, 0.149, 0.53, 0.567, 96.17, ...], [1610612738, u'Boston Celtics', 62, 26, 36, 0.419, 3006.0, 101.3, 103.2, -2.0, 0.623, 1.75, 17.9, 0.25, 0.748, 0.495, 0.139, 0.486, 0.519, 98.34, ...], [1610612751, u'Brooklyn Nets', 61, 25, 36, 0.41, 2963.0, 100.5, 104.5, -4.0, 0.556, 1.43, 16.2, 0.237, 0.736, 0.488, 0.149, 0.488, 0.525, 94.53, ...], [1610612766, u'Charlotte Hornets', 62, 28, 34, 0.452, 3011.0, 98.3, 100.3, -2.0, 0.577, 1.73, 16.3, 0.223, 0.796, 0.503, 0.125, 0.461, 0.502, 95.38, ...], [1610612741, u'Chicago Bulls', 65, 39, 26, 0.6, 3155.0, 104.7, 102.1, 2.6, 0.59, 1.52, 16.6, 0.278, 0.744, 0.515, 0.147, 0.486, 0.534, 95.54, ...], [1610612739, u'Cleveland Cavaliers', 65, 40, 25, 0.615, 3130.0, 107.4, 104.0, 3.4, 0.584, 1.56, 17.0, 0.272, 0.741, 0.51, 0.146, 0.513, 0.552, 94.77, ...], [1610612742, u'Dallas Mavericks', 65, 41, 24, 0.631, 3150.0, 107.4, 102.5, 5.0, 0.569, 1.78, 17.2, 0.236, 0.72, 0.477, 0.129, 0.514, 0.549, 96.65, ...], [1610612743, u'Denver Nuggets', 64, 23, 41, 0.359, 3092.0, 100.5, 104.8, -4.3, 0.58, 1.54, 16.2, 0.261, 0.751, 0.497, 0.141, 0.472, 0.512, 98.47, ...], [1610612765, u'Detroit Pistons', 62, 23, 39, 0.371, 3001.0, 101.3, 103.7, -2.4, 0.576, 1.54, 16.1, 0.277, 0.756, 0.506, 0.142, 0.476, 0.511, 95.81, ...], [1610612744, u'Golden State Warriors', 62, 50, 12, 0.806, 2986.0, 109.1, 97.4, 11.7, 0.651, 1.83, 19.6, 0.238, 0.743, 0.499, 0.147, 0.538, 0.571, 100.95, ...], [1610612745, u'Houston Rockets', 63, 43, 20, 0.683, 3049.0, 103.4, 99.7, 3.7, 0.597, 1.3, 16.5, 0.275, 0.732, 0.502, 0.17, 0.508, 0.544, 99.18, ...], [1610612754, u'Indiana Pacers', 62, 28, 34, 0.452, 2996.0, 99.7, 100.3, -0.6, 0.586, 1.5, 16.6, 0.244, 0.779, 0.514, 0.147, 0.477, 0.518, 95.49, ...], [1610612746, u'Los Angeles Clippers', 64, 41, 23, 0.641, 3082.0, 109.3, 103.0, 6.2, 0.622, 2.01, 18.6, 0.225, 0.759, 0.496, 0.125, 0.528, 0.561, 96.74, ...], [1610612747, u'Los Angeles Lakers', 62, 16, 46, 0.258, 3016.0, 101.3, 107.8, -6.5, 0.555, 1.61, 16.0, 0.251, 0.753, 0.494, 0.132, 0.474, 0.514, 96.75, ...], [1610612763, u'Memphis Grizzlies', 63, 45, 18, 0.714, 3069.0, 103.6, 100.2, 3.4, 0.576, 1.69, 17.1, 0.243, 0.751, 0.499, 0.135, 0.49, 0.533, 94.19, ...], [1610612748, u'Miami Heat', 63, 28, 35, 0.444, 3034.0, 101.9, 103.8, -1.9, 0.578, 1.36, 16.5, 0.228, 0.74, 0.489, 0.159, 0.502, 0.544, 92.75, ...], [1610612749, u'Milwaukee Bucks', 63, 33, 30, 0.524, 3054.0, 100.8, 99.1, 1.7, 0.622, 1.39, 17.8, 0.244, 0.723, 0.489, 0.173, 0.503, 0.541, 96.36, ...], [1610612750, u'Minnesota Timberwolves', 62, 14, 48, 0.226, 2986.0, 99.3, 108.3, -9.0, 0.599, 1.47, 16.6, 0.276, 0.729, 0.493, 0.152, 0.463, 0.511, 97.45, ...], [1610612740, u'New Orleans Pelicans', 64, 35, 29, 0.547, 3082.0, 105.6, 105.2, 0.4, 0.571, 1.6, 16.9, 0.279, 0.753, 0.516, 0.143, 0.499, 0.538, 93.96, ...], [1610612752, u'New York Knicks', 62, 12, 50, 0.194, 3001.0, 98.0, 107.8, -9.8, 0.6, 1.48, 16.9, 0.251, 0.729, 0.482, 0.152, 0.473, 0.509, 93.3, ...], ...]}]}"
p142
sS'row'
p143
S'0'
ssg69
I321
sg70
(dp144
I320
S'        for row in range(0,10):'
p145
sI321
S'            print results[row]'
p146
sI322
S''
sI323
S''
sI324
S''
sI325
S'def view():'
p147
sI316
S"        response = session.get('http://stats.nba.com/stats/leaguedashteamstats', params=params)"
p148
sI317
S'        results = response.json()'
p149
sI318
S"        headers = results['resultSets'][0]['headers']"
p150
sI319
S"        rows = results['resultSets'][0]['rowSet']"
p151
ssg82
S'()'
p152
sg84
S'find_curent_stats'
p153
sasS'pyver'
p154
S'Python 2.7.8: /Applications/anaconda/bin/python (prefix: /Applications/anaconda)'
p155
sS'session'
p156
g56
(S's\x1a\x00\x00\x00<div><table></table></div>'
tRp157
sS'etype'
p158
S"<type 'exceptions.KeyError'>"
p159
sS'date'
p160
S'Tue Mar 10 11:56:57 2015'
p161
sS'response'
p162
g56
(S's\xee2\x00\x00<div><table><tr><td style="font-weight:bold;vertical-align:top;">body</td><td style="vertical-align:top;">:</td><td><div>&lt;cStringIO.StringO object at 0x10f5ec538&gt;</div></td></tr><tr><td style="font-weight:bold;vertical-align:top;">cookies</td><td style="vertical-align:top;">:</td><td><div><table><tr><td style="font-weight:bold;vertical-align:top;">session_id_ballislife</td><td style="vertical-align:top;">:</td><td><div>127.0.0.1-4a74681f-3520-4970-add6-efb27186e509<table><tr><td style="font-weight:bold;vertical-align:top;">comment</td><td style="vertical-align:top;">:</td><td><div></div></td></tr><tr><td style="font-weight:bold;vertical-align:top;">domain</td><td style="vertical-align:top;">:</td><td><div></div></td></tr><tr><td style="font-weight:bold;vertical-align:top;">expires</td><td style="vertical-align:top;">:</td><td><div></div></td></tr><tr><td style="font-weight:bold;vertical-align:top;">httponly</td><td style="vertical-align:top;">:</td><td><div></div></td></tr><tr><td style="font-weight:bold;vertical-align:top;">max-age</td><td style="vertical-align:top;">:</td><td><div></div></td></tr><tr><td style="font-weight:bold;vertical-align:top;">path</td><td style="vertical-align:top;">:</td><td><div>/</div></td></tr><tr><td style="font-weight:bold;vertical-align:top;">secure</td><td style="vertical-align:top;">:</td><td><div></div></td></tr><tr><td style="font-weight:bold;vertical-align:top;">version</td><td style="vertical-align:top;">:</td><td><div></div></td></tr></table></div></td></tr></table></div></td></tr><tr><td style="font-weight:bold;vertical-align:top;">delimiters</td><td style="vertical-align:top;">:</td><td><div><table><tr><td><div>{{</div></td></tr><tr><td><div>}}</div></td></tr></table></div></td></tr><tr><td style="font-weight:bold;vertical-align:top;">files</td><td style="vertical-align:top;">:</td><td><div><table></table></div></td></tr><tr><td style="font-weight:bold;vertical-align:top;">flash</td><td style="vertical-align:top;">:</td><td><div></div></td></tr><tr><td style="font-weight:bold;vertical-align:top;">form_label_separator</td><td style="vertical-align:top;">:</td><td><div>: </div></td></tr><tr><td style="font-weight:bold;vertical-align:top;">formstyle</td><td style="vertical-align:top;">:</td><td><div>table3cols</div></td></tr><tr><td style="font-weight:bold;vertical-align:top;">generic_patterns</td><td style="vertical-align:top;">:</td><td><div><table><tr><td><div>*</div></td></tr></table></div></td></tr><tr><td style="font-weight:bold;vertical-align:top;">google_analytics_id</td><td style="vertical-align:top;">:</td><td><div>None</div></td></tr><tr><td style="font-weight:bold;vertical-align:top;">headers</td><td style="vertical-align:top;">:</td><td><div><table><tr><td style="font-weight:bold;vertical-align:top;">X-Powered-By</td><td style="vertical-align:top;">:</td><td><div>web2py</div></td></tr></table></div></td></tr><tr><td style="font-weight:bold;vertical-align:top;">logo</td><td style="vertical-align:top;">:</td><td><div><a class="brand" href="http://www.web2py.com/"><b>web<span>2</span>py</b>&trade;&nbsp;</a></div></td></tr><tr><td style="font-weight:bold;vertical-align:top;">menu</td><td style="vertical-align:top;">:</td><td><div><table><tr><td><div><table><tr><td><div>Home</div></td></tr><tr><td><div>False</div></td></tr><tr><td><div>/ballislife/default/index</div></td></tr><tr><td><div><table></table></div></td></tr></table></div></td></tr><tr><td><div><table><tr><td><div><span class="highlighted">web2py</span></div></td></tr><tr><td><div>False</div></td></tr><tr><td><div>http://web2py.com</div></td></tr><tr><td><div><table><tr><td><div><table><tr><td><div>My Sites</div></td></tr><tr><td><div>False</div></td></tr><tr><td><div>/admin/default/site</div></td></tr></table></div></td></tr><tr><td><div><table><tr><td><div>This App</div></td></tr><tr><td><div>False</div></td></tr><tr><td><div>/admin/default/design/ballislife</div></td></tr><tr><td><div>[(&lt;lazyT &#x27;Controller&#x27;&gt;, False, &#x27;/admin/default/edit/ballislife/controllers/default.py&#x27;), (&lt;lazyT &#x27;View&#x27;&gt;, False, &#x27;/admin/default/edit/ballislife/views/default/view.html&#x27;), (&lt;lazyT &#x27;Layout&#x27;&gt;, False, &#x27;/admin/default/edit/ballislife/views/layout.html&#x27;), (&lt;lazyT &#x27;Stylesheet&#x27;&gt;, False, &#x27;/admin/default/edit/ballislife/static/css/web2py.css&#x27;), (&lt;lazyT &#x27;DB Model&#x27;&gt;, False, &#x27;/admin/default/edit/ballislife/models/db.py&#x27;), (&lt;lazyT &#x27;Menu Model&#x27;&gt;, False, &#x27;/admin/default/edit/ballislife/models/menu.py&#x27;), (&lt;lazyT &#x27;Database&#x27;&gt;, False, &#x27;/ballislife/appadmin/index&#x27;), (&lt;lazyT &#x27;Errors&#x27;&gt;, False, &#x27;/admin/default/errors/ballislife&#x27;), (&lt;lazyT &#x27;About&#x27;&gt;, False, &#x27;/admin/default/about/ballislife&#x27;)]</div></td></tr></table></div></td></tr><tr><td><div><table><tr><td><div>web2py.com</div></td></tr><tr><td><div>False</div></td></tr><tr><td><div>http://www.web2py.com</div></td></tr><tr><td><div>[(&lt;lazyT &#x27;Download&#x27;&gt;, False, &#x27;http://www.web2py.com/examples/default/download&#x27;), (&lt;lazyT &#x27;Support&#x27;&gt;, False, &#x27;http://www.web2py.com/examples/default/support&#x27;), (&lt;lazyT &#x27;Demo&#x27;&gt;, False, &#x27;http://web2py.com/demo_admin&#x27;), (&lt;lazyT &#x27;Quick Examples&#x27;&gt;, False, &#x27;http://web2py.com/examples/default/examples&#x27;), (&lt;lazyT &#x27;FAQ&#x27;&gt;, False, &#x27;http://web2py.com/AlterEgo&#x27;), (&lt;lazyT &#x27;Videos&#x27;&gt;, False, &#x27;http://www.web2py.com/examples/default/videos/&#x27;), (&lt;lazyT &#x27;Free Applications&#x27;&gt;, False, &#x27;http://web2py.com/appliances&#x27;), (&lt;lazyT &#x27;Plugins&#x27;&gt;, False, &#x27;http://web2py.com/plugins&#x27;), (&lt;lazyT &#x27;Layouts&#x27;&gt;, False, &#x27;http://web2py.com/layouts&#x27;), (&lt;lazyT &#x27;Recipes&#x27;&gt;, False, &#x27;http://web2pyslices.com/&#x27;), (&lt;lazyT &#x27;Semantic&#x27;&gt;, False, &#x27;http://web2py.com/semantic&#x27;)]</div></td></tr></table></div></td></tr><tr><td><div><table><tr><td><div>Documentation</div></td></tr><tr><td><div>False</div></td></tr><tr><td><div>http://www.web2py.com/book</div></td></tr><tr><td><div>[(&lt;lazyT &#x27;Preface&#x27;&gt;, False, &#x27;http://www.web2py.com/book/default/chapter/00&#x27;), (&lt;lazyT &#x27;Introduction&#x27;&gt;, False, &#x27;http://www.web2py.com/book/default/chapter/01&#x27;), (&lt;lazyT &#x27;Python&#x27;&gt;, False, &#x27;http://www.web2py.com/book/default/chapter/02&#x27;), (&lt;lazyT &#x27;Overview&#x27;&gt;, False, &#x27;http://www.web2py.com/book/default/chapter/03&#x27;), (&lt;lazyT &#x27;The Core&#x27;&gt;, False, &#x27;http://www.web2py.com/book/default/chapter/04&#x27;), (&lt;lazyT &#x27;The Views&#x27;&gt;, False, &#x27;http://www.web2py.com/book/default/chapter/05&#x27;), (&lt;lazyT &#x27;Database&#x27;&gt;, False, &#x27;http://www.web2py.com/book/default/chapter/06&#x27;), (&lt;lazyT &#x27;Forms and Validators&#x27;&gt;, False, &#x27;http://www.web2py.com/book/default/chapter/07&#x27;), (&lt;lazyT &#x27;Email and SMS&#x27;&gt;, False, &#x27;http://www.web2py.com/book/default/chapter/08&#x27;), (&lt;lazyT &#x27;Access Control&#x27;&gt;, False, &#x27;http://www.web2py.com/book/default/chapter/09&#x27;), (&lt;lazyT &#x27;Services&#x27;&gt;, False, &#x27;http://www.web2py.com/book/default/chapter/10&#x27;), (&lt;lazyT &#x27;Ajax Recipes&#x27;&gt;, False, &#x27;http://www.web2py.com/book/default/chapter/11&#x27;), (&lt;lazyT &#x27;Components and Plugins&#x27;&gt;, False, &#x27;http://www.web2py.com/book/default/chapter/12&#x27;), (&lt;lazyT &#x27;Deployment Recipes&#x27;&gt;, False, &#x27;http://www.web2py.com/book/default/chapter/13&#x27;), (&lt;lazyT &#x27;Other Recipes&#x27;&gt;, False, &#x27;http://www.web2py.com/book/default/chapter/14&#x27;), (&lt;lazyT &#x27;Buy this book&#x27;&gt;, False, &#x27;http://stores.lulu.com/web2py&#x27;)]</div></td></tr></table></div></td></tr><tr><td><div><table><tr><td><div>Community</div></td></tr><tr><td><div>False</div></td></tr><tr><td><div>None</div></td></tr><tr><td><div>[(&lt;lazyT &#x27;Groups&#x27;&gt;, False, &#x27;http://www.web2py.com/examples/default/usergroups&#x27;), (&lt;lazyT &#x27;Twitter&#x27;&gt;, False, &#x27;http://twitter.com/web2py&#x27;), (&lt;lazyT &#x27;Live Chat&#x27;&gt;, False, &#x27;http://webchat.freenode.net/?channels=web2py&#x27;)]</div></td></tr></table></div></td></tr><tr><td><div><table><tr><td><div>Plugins</div></td></tr><tr><td><div>False</div></td></tr><tr><td><div>None</div></td></tr><tr><td><div>[(&#x27;plugin_wiki&#x27;, False, &#x27;http://web2py.com/examples/default/download&#x27;), (&lt;lazyT &#x27;Other Plugins&#x27;&gt;, False, &#x27;http://web2py.com/plugins&#x27;), (&lt;lazyT &#x27;Layout Plugins&#x27;&gt;, False, &#x27;http://web2py.com/layouts&#x27;)]</div></td></tr></table></div></td></tr></table></div></td></tr></table></div></td></tr></table></div></td></tr><tr><td style="font-weight:bold;vertical-align:top;">meta</td><td style="vertical-align:top;">:</td><td><div><table><tr><td style="font-weight:bold;vertical-align:top;">author</td><td style="vertical-align:top;">:</td><td><div>Your Name &lt;you@example.com&gt;</div></td></tr><tr><td style="font-weight:bold;vertical-align:top;">generator</td><td style="vertical-align:top;">:</td><td><div>Web2py Web Framework</div></td></tr><tr><td style="font-weight:bold;vertical-align:top;">keywords</td><td style="vertical-align:top;">:</td><td><div>web2py, python, framework</div></td></tr></table></div></td></tr><tr><td style="font-weight:bold;vertical-align:top;">models_to_run</td><td style="vertical-align:top;">:</td><td><div><table><tr><td><div>^\\w+\\.py$</div></td></tr><tr><td><div>^default/\\w+\\.py$</div></td></tr><tr><td><div>^default/view/\\w+\\.py$</div></td></tr></table></div></td></tr><tr><td style="font-weight:bold;vertical-align:top;">postprocessing</td><td style="vertical-align:top;">:</td><td><div><table></table></div></td></tr><tr><td style="font-weight:bold;vertical-align:top;">session_client</td><td style="vertical-align:top;">:</td><td><div>127.0.0.1</div></td></tr><tr><td style="font-weight:bold;vertical-align:top;">session_cookie_compression_level</td><td style="vertical-align:top;">:</td><td><div>None</div></td></tr><tr><td style="font-weight:bold;vertical-align:top;">session_cookie_expires</td><td style="vertical-align:top;">:</td><td><div>None</div></td></tr><tr><td style="font-weight:bold;vertical-align:top;">session_cookie_key</td><td style="vertical-align:top;">:</td><td><div>None</div></td></tr><tr><td style="font-weight:bold;vertical-align:top;">session_data_name</td><td style="vertical-align:top;">:</td><td><div>session_data_ballislife</div></td></tr><tr><td style="font-weight:bold;vertical-align:top;">session_file</td><td style="vertical-align:top;">:</td><td><div>&lt;open file &#x27;/Users/AlyanShafique/Documents/web2py/web2py/applications/ballislife/sessions/061/190/127.0.0.1-4a74681f-3520-4970-add6-efb27186e509&#x27;, mode &#x27;rb+&#x27; at 0x1104ab930&gt;</div></td></tr><tr><td style="font-weight:bold;vertical-align:top;">session_filename</td><td style="vertical-align:top;">:</td><td><div>/Users/AlyanShafique/Documents/web2py/web2py/applications/ballislife/sessions/127.0.0.1-4a74681f-3520-4970-add6-efb27186e509</div></td></tr><tr><td style="font-weight:bold;vertical-align:top;">session_hash</td><td style="vertical-align:top;">:</td><td><div>4bf4fd2d4dfd9ef66396343ba67cccb2</div></td></tr><tr><td style="font-weight:bold;vertical-align:top;">session_id</td><td style="vertical-align:top;">:</td><td><div>127.0.0.1-4a74681f-3520-4970-add6-efb27186e509</div></td></tr><tr><td style="font-weight:bold;vertical-align:top;">session_id_name</td><td style="vertical-align:top;">:</td><td><div>session_id_ballislife</div></td></tr><tr><td style="font-weight:bold;vertical-align:top;">session_locked</td><td style="vertical-align:top;">:</td><td><div>True</div></td></tr><tr><td style="font-weight:bold;vertical-align:top;">session_masterapp</td><td style="vertical-align:top;">:</td><td><div>ballislife</div></td></tr><tr><td style="font-weight:bold;vertical-align:top;">session_new</td><td style="vertical-align:top;">:</td><td><div>False</div></td></tr><tr><td style="font-weight:bold;vertical-align:top;">session_storage_type</td><td style="vertical-align:top;">:</td><td><div>file</div></td></tr><tr><td style="font-weight:bold;vertical-align:top;">status</td><td style="vertical-align:top;">:</td><td><div>200</div></td></tr><tr><td style="font-weight:bold;vertical-align:top;">subtitle</td><td style="vertical-align:top;">:</td><td><div></div></td></tr><tr><td style="font-weight:bold;vertical-align:top;">title</td><td style="vertical-align:top;">:</td><td><div>Ballislife</div></td></tr><tr><td style="font-weight:bold;vertical-align:top;">view</td><td style="vertical-align:top;">:</td><td><div>default/view.html</div></td></tr></table></div>'
tRp163
sS'locals'
p164
(dp165
S'rows'
p166
S"[[1610612737, u'Atlanta Hawks', 63, 50, 13, 0.794, 3034.0, 106.6, 100.0, 6.6, 0.678, 1.79, 19.7, 0.213, 0.733, 0.484, 0.149, 0.53, 0.567, 96.17, ...], [1610612738, u'Boston Celtics', 62, 26, 36, 0.419, 3006.0, 101.3, 103.2, -2.0, 0.623, 1.75, 17.9, 0.25, 0.748, 0.495, 0.139, 0.486, 0.519, 98.34, ...], [1610612751, u'Brooklyn Nets', 61, 25, 36, 0.41, 2963.0, 100.5, 104.5, -4.0, 0.556, 1.43, 16.2, 0.237, 0.736, 0.488, 0.149, 0.488, 0.525, 94.53, ...], [1610612766, u'Charlotte Hornets', 62, 28, 34, 0.452, 3011.0, 98.3, 100.3, -2.0, 0.577, 1.73, 16.3, 0.223, 0.796, 0.503, 0.125, 0.461, 0.502, 95.38, ...], [1610612741, u'Chicago Bulls', 65, 39, 26, 0.6, 3155.0, 104.7, 102.1, 2.6, 0.59, 1.52, 16.6, 0.278, 0.744, 0.515, 0.147, 0.486, 0.534, 95.54, ...], [1610612739, u'Cleveland Cavaliers', 65, 40, 25, 0.615, 3130.0, 107.4, 104.0, 3.4, 0.584, 1.56, 17.0, 0.272, 0.741, 0.51, 0.146, 0.513, 0.552, 94.77, ...], [1610612742, u'Dallas Mavericks', 65, 41, 24, 0.631, 3150.0, 107.4, 102.5, 5.0, 0.569, 1.78, 17.2, 0.236, 0.72, 0.477, 0.129, 0.514, 0.549, 96.65, ...], [1610612743, u'Denver Nuggets', 64, 23, 41, 0.359, 3092.0, 100.5, 104.8, -4.3, 0.58, 1.54, 16.2, 0.261, 0.751, 0.497, 0.141, 0.472, 0.512, 98.47, ...], [1610612765, u'Detroit Pistons', 62, 23, 39, 0.371, 3001.0, 101.3, 103.7, -2.4, 0.576, 1.54, 16.1, 0.277, 0.756, 0.506, 0.142, 0.476, 0.511, 95.81, ...], [1610612744, u'Golden State Warriors', 62, 50, 12, 0.806, 2986.0, 109.1, 97.4, 11.7, 0.651, 1.83, 19.6, 0.238, 0.743, 0.499, 0.147, 0.538, 0.571, 100.95, ...], [1610612745, u'Houston Rockets', 63, 43, 20, 0.683, 3049.0, 103.4, 99.7, 3.7, 0.597, 1.3, 16.5, 0.275, 0.732, 0.502, 0.17, 0.508, 0.544, 99.18, ...], [1610612754, u'Indiana Pacers', 62, 28, 34, 0.452, 2996.0, 99.7, 100.3, -0.6, 0.586, 1.5, 16.6, 0.244, 0.779, 0.514, 0.147, 0.477, 0.518, 95.49, ...], [1610612746, u'Los Angeles Clippers', 64, 41, 23, 0.641, 3082.0, 109.3, 103.0, 6.2, 0.622, 2.01, 18.6, 0.225, 0.759, 0.496, 0.125, 0.528, 0.561, 96.74, ...], [1610612747, u'Los Angeles Lakers', 62, 16, 46, 0.258, 3016.0, 101.3, 107.8, -6.5, 0.555, 1.61, 16.0, 0.251, 0.753, 0.494, 0.132, 0.474, 0.514, 96.75, ...], [1610612763, u'Memphis Grizzlies', 63, 45, 18, 0.714, 3069.0, 103.6, 100.2, 3.4, 0.576, 1.69, 17.1, 0.243, 0.751, 0.499, 0.135, 0.49, 0.533, 94.19, ...], [1610612748, u'Miami Heat', 63, 28, 35, 0.444, 3034.0, 101.9, 103.8, -1.9, 0.578, 1.36, 16.5, 0.228, 0.74, 0.489, 0.159, 0.502, 0.544, 92.75, ...], [1610612749, u'Milwaukee Bucks', 63, 33, 30, 0.524, 3054.0, 100.8, 99.1, 1.7, 0.622, 1.39, 17.8, 0.244, 0.723, 0.489, 0.173, 0.503, 0.541, 96.36, ...], [1610612750, u'Minnesota Timberwolves', 62, 14, 48, 0.226, 2986.0, 99.3, 108.3, -9.0, 0.599, 1.47, 16.6, 0.276, 0.729, 0.493, 0.152, 0.463, 0.511, 97.45, ...], [1610612740, u'New Orleans Pelicans', 64, 35, 29, 0.547, 3082.0, 105.6, 105.2, 0.4, 0.571, 1.6, 16.9, 0.279, 0.753, 0.516, 0.143, 0.499, 0.538, 93.96, ...], [1610612752, u'New York Knicks', 62, 12, 50, 0.194, 3001.0, 98.0, 107.8, -9.8, 0.6, 1.48, 16.9, 0.251, 0.729, 0.482, 0.152, 0.473, 0.509, 93.3, ...], ...]"
p167
sS'url'
p168
S"'http://stats.nba.com/league/team/#!/advanced/'"
p169
sS'results'
p170
S"{u'parameters': {u'DateFrom': None, u'DateTo': None, u'GameScope': None, u'GameSegment': None, u'LastNGames': 0, u'LeagueID': u'00', u'Location': None, u'MeasureType': u'Advanced', u'Month': 0, u'OpponentTeamID': 0, ...}, u'resource': u'leaguedashteamstats', u'resultSets': [{u'headers': [u'TEAM_ID', u'TEAM_NAME', u'GP', u'W', u'L', u'W_PCT', u'MIN', u'OFF_RATING', u'DEF_RATING', u'NET_RATING', u'AST_PCT', u'AST_TO', u'AST_RATIO', u'OREB_PCT', u'DREB_PCT', u'REB_PCT', u'TM_TOV_PCT', u'EFG_PCT', u'TS_PCT', u'PACE', ...], u'name': u'LeagueDashTeamStats', u'rowSet': [[1610612737, u'Atlanta Hawks', 63, 50, 13, 0.794, 3034.0, 106.6, 100.0, 6.6, 0.678, 1.79, 19.7, 0.213, 0.733, 0.484, 0.149, 0.53, 0.567, 96.17, ...], [1610612738, u'Boston Celtics', 62, 26, 36, 0.419, 3006.0, 101.3, 103.2, -2.0, 0.623, 1.75, 17.9, 0.25, 0.748, 0.495, 0.139, 0.486, 0.519, 98.34, ...], [1610612751, u'Brooklyn Nets', 61, 25, 36, 0.41, 2963.0, 100.5, 104.5, -4.0, 0.556, 1.43, 16.2, 0.237, 0.736, 0.488, 0.149, 0.488, 0.525, 94.53, ...], [1610612766, u'Charlotte Hornets', 62, 28, 34, 0.452, 3011.0, 98.3, 100.3, -2.0, 0.577, 1.73, 16.3, 0.223, 0.796, 0.503, 0.125, 0.461, 0.502, 95.38, ...], [1610612741, u'Chicago Bulls', 65, 39, 26, 0.6, 3155.0, 104.7, 102.1, 2.6, 0.59, 1.52, 16.6, 0.278, 0.744, 0.515, 0.147, 0.486, 0.534, 95.54, ...], [1610612739, u'Cleveland Cavaliers', 65, 40, 25, 0.615, 3130.0, 107.4, 104.0, 3.4, 0.584, 1.56, 17.0, 0.272, 0.741, 0.51, 0.146, 0.513, 0.552, 94.77, ...], [1610612742, u'Dallas Mavericks', 65, 41, 24, 0.631, 3150.0, 107.4, 102.5, 5.0, 0.569, 1.78, 17.2, 0.236, 0.72, 0.477, 0.129, 0.514, 0.549, 96.65, ...], [1610612743, u'Denver Nuggets', 64, 23, 41, 0.359, 3092.0, 100.5, 104.8, -4.3, 0.58, 1.54, 16.2, 0.261, 0.751, 0.497, 0.141, 0.472, 0.512, 98.47, ...], [1610612765, u'Detroit Pistons', 62, 23, 39, 0.371, 3001.0, 101.3, 103.7, -2.4, 0.576, 1.54, 16.1, 0.277, 0.756, 0.506, 0.142, 0.476, 0.511, 95.81, ...], [1610612744, u'Golden State Warriors', 62, 50, 12, 0.806, 2986.0, 109.1, 97.4, 11.7, 0.651, 1.83, 19.6, 0.238, 0.743, 0.499, 0.147, 0.538, 0.571, 100.95, ...], [1610612745, u'Houston Rockets', 63, 43, 20, 0.683, 3049.0, 103.4, 99.7, 3.7, 0.597, 1.3, 16.5, 0.275, 0.732, 0.502, 0.17, 0.508, 0.544, 99.18, ...], [1610612754, u'Indiana Pacers', 62, 28, 34, 0.452, 2996.0, 99.7, 100.3, -0.6, 0.586, 1.5, 16.6, 0.244, 0.779, 0.514, 0.147, 0.477, 0.518, 95.49, ...], [1610612746, u'Los Angeles Clippers', 64, 41, 23, 0.641, 3082.0, 109.3, 103.0, 6.2, 0.622, 2.01, 18.6, 0.225, 0.759, 0.496, 0.125, 0.528, 0.561, 96.74, ...], [1610612747, u'Los Angeles Lakers', 62, 16, 46, 0.258, 3016.0, 101.3, 107.8, -6.5, 0.555, 1.61, 16.0, 0.251, 0.753, 0.494, 0.132, 0.474, 0.514, 96.75, ...], [1610612763, u'Memphis Grizzlies', 63, 45, 18, 0.714, 3069.0, 103.6, 100.2, 3.4, 0.576, 1.69, 17.1, 0.243, 0.751, 0.499, 0.135, 0.49, 0.533, 94.19, ...], [1610612748, u'Miami Heat', 63, 28, 35, 0.444, 3034.0, 101.9, 103.8, -1.9, 0.578, 1.36, 16.5, 0.228, 0.74, 0.489, 0.159, 0.502, 0.544, 92.75, ...], [1610612749, u'Milwaukee Bucks', 63, 33, 30, 0.524, 3054.0, 100.8, 99.1, 1.7, 0.622, 1.39, 17.8, 0.244, 0.723, 0.489, 0.173, 0.503, 0.541, 96.36, ...], [1610612750, u'Minnesota Timberwolves', 62, 14, 48, 0.226, 2986.0, 99.3, 108.3, -9.0, 0.599, 1.47, 16.6, 0.276, 0.729, 0.493, 0.152, 0.463, 0.511, 97.45, ...], [1610612740, u'New Orleans Pelicans', 64, 35, 29, 0.547, 3082.0, 105.6, 105.2, 0.4, 0.571, 1.6, 16.9, 0.279, 0.753, 0.516, 0.143, 0.499, 0.538, 93.96, ...], [1610612752, u'New York Knicks', 62, 12, 50, 0.194, 3001.0, 98.0, 107.8, -9.8, 0.6, 1.48, 16.9, 0.251, 0.729, 0.482, 0.152, 0.473, 0.509, 93.3, ...], ...]}]}"
p171
sS'headers'
p172
S"[u'TEAM_ID', u'TEAM_NAME', u'GP', u'W', u'L', u'W_PCT', u'MIN', u'OFF_RATING', u'DEF_RATING', u'NET_RATING', u'AST_PCT', u'AST_TO', u'AST_RATIO', u'OREB_PCT', u'DREB_PCT', u'REB_PCT', u'TM_TOV_PCT', u'EFG_PCT', u'TS_PCT', u'PACE', ...]"
p173
sg156
S'<requests.sessions.Session object>'
p174
sS'params'
p175
S"{'DateFrom': '', 'DateTo': '', 'GameScope': '', 'GameSegment': '', 'LastNGames': '0', 'LeagueID': '00', 'Location': '', 'MeasureType': 'Advanced', 'Month': '0', 'OpponentTeamID': '0', ...}"
p176
sg162
S'<Response [200]>'
p177
sS'row'
p178
S'0'
sssS'traceback'
p179
S'Traceback (most recent call last):\n  File "/Users/AlyanShafique/Documents/web2py/web2py/gluon/restricted.py", line 226, in restricted\n    exec ccode in environment\n  File "/Users/AlyanShafique/Documents/web2py/web2py/applications/ballislife/controllers/default.py", line 433, in <module>\n  File "/Users/AlyanShafique/Documents/web2py/web2py/gluon/globals.py", line 393, in <lambda>\n    self._caller = lambda f: f()\n  File "/Users/AlyanShafique/Documents/web2py/web2py/applications/ballislife/controllers/default.py", line 339, in view\n    find_curent_stats()\n  File "/Users/AlyanShafique/Documents/web2py/web2py/applications/ballislife/controllers/default.py", line 321, in find_curent_stats\n    print results[row]\nKeyError: 0\n'
p180
s.